Archive member included to satisfy reference by file (symbol)

/usr/lib/gcc/arm-none-eabi/6.3.1/thumb/v7e-m/fpv4-sp/hard/libgcc.a(_aeabi_ldivmod.o)
                              /tmp/cc6q353B.o (__aeabi_ldivmod)
/usr/lib/gcc/arm-none-eabi/6.3.1/thumb/v7e-m/fpv4-sp/hard/libgcc.a(_aeabi_uldivmod.o)
                              /tmp/cc6q353B.o (__aeabi_uldivmod)
/usr/lib/gcc/arm-none-eabi/6.3.1/thumb/v7e-m/fpv4-sp/hard/libgcc.a(_udivmoddi4.o)
                              /usr/lib/gcc/arm-none-eabi/6.3.1/thumb/v7e-m/fpv4-sp/hard/libgcc.a(_aeabi_ldivmod.o) (__udivmoddi4)
/usr/lib/gcc/arm-none-eabi/6.3.1/thumb/v7e-m/fpv4-sp/hard/libgcc.a(_dvmd_tls.o)
                              /usr/lib/gcc/arm-none-eabi/6.3.1/thumb/v7e-m/fpv4-sp/hard/libgcc.a(_aeabi_ldivmod.o) (__aeabi_ldiv0)
/usr/lib/gcc/arm-none-eabi/6.3.1/../../../arm-none-eabi/lib/thumb/v7e-m/fpv4-sp/hard/libc_nano.a(lib_a-atexit.o)
                              /usr/lib/gcc/arm-none-eabi/6.3.1/../../../arm-none-eabi/lib/thumb/v7e-m/fpv4-sp/hard/crt0.o (atexit)
/usr/lib/gcc/arm-none-eabi/6.3.1/../../../arm-none-eabi/lib/thumb/v7e-m/fpv4-sp/hard/libc_nano.a(lib_a-atoi.o)
                              /tmp/ccXVCA4s.o (atoi)
/usr/lib/gcc/arm-none-eabi/6.3.1/../../../arm-none-eabi/lib/thumb/v7e-m/fpv4-sp/hard/libc_nano.a(lib_a-ctype_.o)
                              /tmp/ccSBBS7n.o (__ctype_ptr__)
/usr/lib/gcc/arm-none-eabi/6.3.1/../../../arm-none-eabi/lib/thumb/v7e-m/fpv4-sp/hard/libc_nano.a(lib_a-errno.o)
                              /tmp/ccOvwWJw.o (__errno)
/usr/lib/gcc/arm-none-eabi/6.3.1/../../../arm-none-eabi/lib/thumb/v7e-m/fpv4-sp/hard/libc_nano.a(lib_a-exit.o)
                              /usr/lib/gcc/arm-none-eabi/6.3.1/../../../arm-none-eabi/lib/thumb/v7e-m/fpv4-sp/hard/crt0.o (exit)
/usr/lib/gcc/arm-none-eabi/6.3.1/../../../arm-none-eabi/lib/thumb/v7e-m/fpv4-sp/hard/libc_nano.a(lib_a-fini.o)
                              /usr/lib/gcc/arm-none-eabi/6.3.1/../../../arm-none-eabi/lib/thumb/v7e-m/fpv4-sp/hard/crt0.o (__libc_fini_array)
/usr/lib/gcc/arm-none-eabi/6.3.1/../../../arm-none-eabi/lib/thumb/v7e-m/fpv4-sp/hard/libc_nano.a(lib_a-impure.o)
                              /usr/lib/gcc/arm-none-eabi/6.3.1/../../../arm-none-eabi/lib/thumb/v7e-m/fpv4-sp/hard/libc_nano.a(lib_a-exit.o) (_global_impure_ptr)
/usr/lib/gcc/arm-none-eabi/6.3.1/../../../arm-none-eabi/lib/thumb/v7e-m/fpv4-sp/hard/libc_nano.a(lib_a-init.o)
                              /usr/lib/gcc/arm-none-eabi/6.3.1/../../../arm-none-eabi/lib/thumb/v7e-m/fpv4-sp/hard/crt0.o (__libc_init_array)
/usr/lib/gcc/arm-none-eabi/6.3.1/../../../arm-none-eabi/lib/thumb/v7e-m/fpv4-sp/hard/libc_nano.a(lib_a-malloc.o)
                              /tmp/cc5r2u4g.o (malloc)
/usr/lib/gcc/arm-none-eabi/6.3.1/../../../arm-none-eabi/lib/thumb/v7e-m/fpv4-sp/hard/libc_nano.a(lib_a-memcmp.o)
                              /tmp/ccyCAOrJ.o (memcmp)
/usr/lib/gcc/arm-none-eabi/6.3.1/../../../arm-none-eabi/lib/thumb/v7e-m/fpv4-sp/hard/libc_nano.a(lib_a-memcpy.o)
                              /tmp/cc70xeHl.o (memcpy)
/usr/lib/gcc/arm-none-eabi/6.3.1/../../../arm-none-eabi/lib/thumb/v7e-m/fpv4-sp/hard/libc_nano.a(lib_a-memmove.o)
                              /tmp/ccO6ZU8h.o (memmove)
/usr/lib/gcc/arm-none-eabi/6.3.1/../../../arm-none-eabi/lib/thumb/v7e-m/fpv4-sp/hard/libc_nano.a(lib_a-memset.o)
                              /usr/lib/gcc/arm-none-eabi/6.3.1/../../../arm-none-eabi/lib/thumb/v7e-m/fpv4-sp/hard/crt0.o (memset)
/usr/lib/gcc/arm-none-eabi/6.3.1/../../../arm-none-eabi/lib/thumb/v7e-m/fpv4-sp/hard/libc_nano.a(lib_a-nano-freer.o)
                              /usr/lib/gcc/arm-none-eabi/6.3.1/../../../arm-none-eabi/lib/thumb/v7e-m/fpv4-sp/hard/libc_nano.a(lib_a-malloc.o) (_free_r)
/usr/lib/gcc/arm-none-eabi/6.3.1/../../../arm-none-eabi/lib/thumb/v7e-m/fpv4-sp/hard/libc_nano.a(lib_a-nano-mallocr.o)
                              /usr/lib/gcc/arm-none-eabi/6.3.1/../../../arm-none-eabi/lib/thumb/v7e-m/fpv4-sp/hard/libc_nano.a(lib_a-malloc.o) (_malloc_r)
/usr/lib/gcc/arm-none-eabi/6.3.1/../../../arm-none-eabi/lib/thumb/v7e-m/fpv4-sp/hard/libc_nano.a(lib_a-sbrkr.o)
                              /usr/lib/gcc/arm-none-eabi/6.3.1/../../../arm-none-eabi/lib/thumb/v7e-m/fpv4-sp/hard/libc_nano.a(lib_a-nano-mallocr.o) (_sbrk_r)
/usr/lib/gcc/arm-none-eabi/6.3.1/../../../arm-none-eabi/lib/thumb/v7e-m/fpv4-sp/hard/libc_nano.a(lib_a-sprintf.o)
                              /tmp/ccsSVoQh.o (sprintf)
/usr/lib/gcc/arm-none-eabi/6.3.1/../../../arm-none-eabi/lib/thumb/v7e-m/fpv4-sp/hard/libc_nano.a(lib_a-strcpy.o)
                              /tmp/ccsSVoQh.o (strcpy)
/usr/lib/gcc/arm-none-eabi/6.3.1/../../../arm-none-eabi/lib/thumb/v7e-m/fpv4-sp/hard/libc_nano.a(lib_a-strlen.o)
                              /tmp/ccsSVoQh.o (strlen)
/usr/lib/gcc/arm-none-eabi/6.3.1/../../../arm-none-eabi/lib/thumb/v7e-m/fpv4-sp/hard/libc_nano.a(lib_a-strncmp.o)
                              /tmp/ccO6ZU8h.o (strncmp)
/usr/lib/gcc/arm-none-eabi/6.3.1/../../../arm-none-eabi/lib/thumb/v7e-m/fpv4-sp/hard/libc_nano.a(lib_a-strtol.o)
                              /usr/lib/gcc/arm-none-eabi/6.3.1/../../../arm-none-eabi/lib/thumb/v7e-m/fpv4-sp/hard/libc_nano.a(lib_a-atoi.o) (_strtol_r)
/usr/lib/gcc/arm-none-eabi/6.3.1/../../../arm-none-eabi/lib/thumb/v7e-m/fpv4-sp/hard/libc_nano.a(lib_a-__atexit.o)
                              /usr/lib/gcc/arm-none-eabi/6.3.1/../../../arm-none-eabi/lib/thumb/v7e-m/fpv4-sp/hard/libc_nano.a(lib_a-atexit.o) (__register_exitproc)
/usr/lib/gcc/arm-none-eabi/6.3.1/../../../arm-none-eabi/lib/thumb/v7e-m/fpv4-sp/hard/libc_nano.a(lib_a-__call_atexit.o)
                              /usr/lib/gcc/arm-none-eabi/6.3.1/../../../arm-none-eabi/lib/thumb/v7e-m/fpv4-sp/hard/libc_nano.a(lib_a-__atexit.o) (__call_exitprocs)
/usr/lib/gcc/arm-none-eabi/6.3.1/../../../arm-none-eabi/lib/thumb/v7e-m/fpv4-sp/hard/libc_nano.a(lib_a-nano-svfprintf.o)
                              /usr/lib/gcc/arm-none-eabi/6.3.1/../../../arm-none-eabi/lib/thumb/v7e-m/fpv4-sp/hard/libc_nano.a(lib_a-sprintf.o) (_svfprintf_r)
/usr/lib/gcc/arm-none-eabi/6.3.1/../../../arm-none-eabi/lib/thumb/v7e-m/fpv4-sp/hard/libc_nano.a(lib_a-nano-vfprintf_i.o)
                              /usr/lib/gcc/arm-none-eabi/6.3.1/../../../arm-none-eabi/lib/thumb/v7e-m/fpv4-sp/hard/libc_nano.a(lib_a-nano-svfprintf.o) (_printf_i)
/usr/lib/gcc/arm-none-eabi/6.3.1/../../../arm-none-eabi/lib/thumb/v7e-m/fpv4-sp/hard/libc_nano.a(lib_a-memchr.o)
                              /usr/lib/gcc/arm-none-eabi/6.3.1/../../../arm-none-eabi/lib/thumb/v7e-m/fpv4-sp/hard/libc_nano.a(lib_a-nano-svfprintf.o) (memchr)
/usr/lib/gcc/arm-none-eabi/6.3.1/../../../arm-none-eabi/lib/thumb/v7e-m/fpv4-sp/hard/libc_nano.a(lib_a-nano-reallocr.o)
                              /usr/lib/gcc/arm-none-eabi/6.3.1/../../../arm-none-eabi/lib/thumb/v7e-m/fpv4-sp/hard/libc_nano.a(lib_a-nano-svfprintf.o) (_realloc_r)
/usr/lib/gcc/arm-none-eabi/6.3.1/../../../arm-none-eabi/lib/thumb/v7e-m/fpv4-sp/hard/libc_nano.a(lib_a-nano-msizer.o)
                              /usr/lib/gcc/arm-none-eabi/6.3.1/../../../arm-none-eabi/lib/thumb/v7e-m/fpv4-sp/hard/libc_nano.a(lib_a-nano-reallocr.o) (_malloc_usable_size_r)
/usr/lib/gcc/arm-none-eabi/6.3.1/../../../arm-none-eabi/lib/thumb/v7e-m/fpv4-sp/hard/libnosys.a(_exit.o)
                              /usr/lib/gcc/arm-none-eabi/6.3.1/../../../arm-none-eabi/lib/thumb/v7e-m/fpv4-sp/hard/libc_nano.a(lib_a-exit.o) (_exit)

Discarded input sections

 .text          0x0000000000000000        0x0 /usr/lib/gcc/arm-none-eabi/6.3.1/thumb/v7e-m/fpv4-sp/hard/crti.o
 .data          0x0000000000000000        0x0 /usr/lib/gcc/arm-none-eabi/6.3.1/thumb/v7e-m/fpv4-sp/hard/crti.o
 .bss           0x0000000000000000        0x0 /usr/lib/gcc/arm-none-eabi/6.3.1/thumb/v7e-m/fpv4-sp/hard/crti.o
 .data          0x0000000000000000        0x4 /usr/lib/gcc/arm-none-eabi/6.3.1/thumb/v7e-m/fpv4-sp/hard/crtbegin.o
 .data          0x0000000000000000        0x0 /usr/lib/gcc/arm-none-eabi/6.3.1/../../../arm-none-eabi/lib/thumb/v7e-m/fpv4-sp/hard/crt0.o
 .bss           0x0000000000000000        0x0 /usr/lib/gcc/arm-none-eabi/6.3.1/../../../arm-none-eabi/lib/thumb/v7e-m/fpv4-sp/hard/crt0.o
 .ARM.extab     0x0000000000000000        0x0 /usr/lib/gcc/arm-none-eabi/6.3.1/../../../arm-none-eabi/lib/thumb/v7e-m/fpv4-sp/hard/crt0.o
 .data          0x0000000000000000        0x0 /tmp/ccJinnRA.o
 .bss           0x0000000000000000        0x0 /tmp/ccJinnRA.o
 .text          0x0000000000000000        0x0 /tmp/ccYMvnVx.o
 .data          0x0000000000000000        0x0 /tmp/ccYMvnVx.o
 .bss           0x0000000000000000        0x0 /tmp/ccYMvnVx.o
 .bss.masterReceiveBuffer
                0x0000000000000000      0x100 /tmp/ccYMvnVx.o
 .bss.masterSendBuffer
                0x0000000000000000      0x100 /tmp/ccYMvnVx.o
 .bss.slaveReceiveBuffer
                0x0000000000000000      0x100 /tmp/ccYMvnVx.o
 .bss.slaveSendBuffer
                0x0000000000000000      0x100 /tmp/ccYMvnVx.o
 .text          0x0000000000000000        0x0 /tmp/ccmrEU8u.o
 .data          0x0000000000000000        0x0 /tmp/ccmrEU8u.o
 .bss           0x0000000000000000        0x0 /tmp/ccmrEU8u.o
 .text          0x0000000000000000        0x0 /tmp/cccGtVus.o
 .data          0x0000000000000000        0x0 /tmp/cccGtVus.o
 .bss           0x0000000000000000        0x0 /tmp/cccGtVus.o
 .text          0x0000000000000000        0x0 /tmp/ccmZbr0p.o
 .data          0x0000000000000000        0x0 /tmp/ccmZbr0p.o
 .bss           0x0000000000000000        0x0 /tmp/ccmZbr0p.o
 .text.BOARD_BootClockVLPR
                0x0000000000000000       0x50 /tmp/ccmZbr0p.o
 .rodata.mcgConfig_BOARD_BootClockVLPR
                0x0000000000000000        0xb /tmp/ccmZbr0p.o
 .rodata.oscConfig_BOARD_BootClockVLPR
                0x0000000000000000        0x8 /tmp/ccmZbr0p.o
 .rodata.simConfig_BOARD_BootClockVLPR
                0x0000000000000000        0x8 /tmp/ccmZbr0p.o
 .text          0x0000000000000000        0x0 /tmp/ccr2xbJn.o
 .data          0x0000000000000000        0x0 /tmp/ccr2xbJn.o
 .bss           0x0000000000000000        0x0 /tmp/ccr2xbJn.o
 .text.PHY_EnableLoopback
                0x0000000000000000       0x76 /tmp/ccr2xbJn.o
 .text          0x0000000000000000        0x0 /tmp/cc70xeHl.o
 .data          0x0000000000000000        0x0 /tmp/cc70xeHl.o
 .bss           0x0000000000000000        0x0 /tmp/cc70xeHl.o
 .text          0x0000000000000000        0x0 /tmp/ccSuEqOj.o
 .data          0x0000000000000000        0x0 /tmp/ccSuEqOj.o
 .bss           0x0000000000000000        0x0 /tmp/ccSuEqOj.o
 .text.SIM_SetUsbVoltRegulatorEnableMode
                0x0000000000000000       0x1c /tmp/ccSuEqOj.o
 .text.SIM_GetUniqueId
                0x0000000000000000       0x20 /tmp/ccSuEqOj.o
 .comment       0x0000000000000000       0x32 /tmp/ccSuEqOj.o
 .ARM.attributes
                0x0000000000000000       0x39 /tmp/ccSuEqOj.o
 .text          0x0000000000000000        0x0 /tmp/ccqptAyi.o
 .data          0x0000000000000000        0x0 /tmp/ccqptAyi.o
 .bss           0x0000000000000000        0x0 /tmp/ccqptAyi.o
 .text.CLOCK_FllStableDelay
                0x0000000000000000       0x18 /tmp/ccqptAyi.o
 .text.CLOCK_EnableUsbfs0Clock
                0x0000000000000000       0xa8 /tmp/ccqptAyi.o
 .text.CLOCK_GetFlashClkFreq
                0x0000000000000000       0x20 /tmp/ccqptAyi.o
 .text.CLOCK_GetFlexBusClkFreq
                0x0000000000000000       0x20 /tmp/ccqptAyi.o
 .text.CLOCK_GetBusClkFreq
                0x0000000000000000       0x20 /tmp/ccqptAyi.o
 .text.CLOCK_GetPlatClkFreq
                0x0000000000000000        0x4 /tmp/ccqptAyi.o
 .text.CLOCK_CalcPllDiv
                0x0000000000000000       0xc0 /tmp/ccqptAyi.o
 .text.CLOCK_SetOsc0MonitorMode
                0x0000000000000000       0x38 /tmp/ccqptAyi.o
 .text.CLOCK_SetRtcOscMonitorMode
                0x0000000000000000       0x20 /tmp/ccqptAyi.o
 .text.CLOCK_SetPll0MonitorMode
                0x0000000000000000       0x38 /tmp/ccqptAyi.o
 .text.CLOCK_GetStatusFlags
                0x0000000000000000       0x34 /tmp/ccqptAyi.o
 .text.CLOCK_ClearStatusFlags
                0x0000000000000000       0x2c /tmp/ccqptAyi.o
 .text.CLOCK_DeinitOsc0
                0x0000000000000000       0x1c /tmp/ccqptAyi.o
 .text.CLOCK_TrimInternalRefClk
                0x0000000000000000       0xb0 /tmp/ccqptAyi.o
 .text.CLOCK_GetMode
                0x0000000000000000       0x54 /tmp/ccqptAyi.o
 .text.CLOCK_SetFeiMode
                0x0000000000000000       0x60 /tmp/ccqptAyi.o
 .text.CLOCK_SetFeeMode
                0x0000000000000000       0x7c /tmp/ccqptAyi.o
 .text.CLOCK_SetFbiMode
                0x0000000000000000       0x68 /tmp/ccqptAyi.o
 .text.CLOCK_SetFbeMode
                0x0000000000000000       0x80 /tmp/ccqptAyi.o
 .text.CLOCK_SetBlpeMode
                0x0000000000000000       0x14 /tmp/ccqptAyi.o
 .text.CLOCK_SetBlpiMode
                0x0000000000000000        0x4 /tmp/ccqptAyi.o
 .text.CLOCK_SetPeeMode
                0x0000000000000000       0x1c /tmp/ccqptAyi.o
 .text.CLOCK_ExternalModeToFbeModeQuick
                0x0000000000000000       0x38 /tmp/ccqptAyi.o
 .text.CLOCK_InternalModeToFbiModeQuick
                0x0000000000000000       0x28 /tmp/ccqptAyi.o
 .text.CLOCK_BootToFeiMode
                0x0000000000000000        0x4 /tmp/ccqptAyi.o
 .text.CLOCK_BootToFeeMode
                0x0000000000000000       0x20 /tmp/ccqptAyi.o
 .text.CLOCK_BootToBlpiMode
                0x0000000000000000       0x34 /tmp/ccqptAyi.o
 .text.CLOCK_BootToBlpeMode
                0x0000000000000000       0x44 /tmp/ccqptAyi.o
 .text.CLOCK_SetMcgConfig
                0x0000000000000000      0x114 /tmp/ccqptAyi.o
 .text.SDK_DelayAtLeastUs
                0x0000000000000000       0x60 /tmp/ccqptAyi.o
 .rodata.mcgModeMatrix
                0x0000000000000000       0x40 /tmp/ccqptAyi.o
 .rodata.trimRange.8182
                0x0000000000000000       0x10 /tmp/ccqptAyi.o
 .text          0x0000000000000000        0x0 /tmp/ccsQreMh.o
 .data          0x0000000000000000        0x0 /tmp/ccsQreMh.o
 .bss           0x0000000000000000        0x0 /tmp/ccsQreMh.o
 .text.ENET_Deinit
                0x0000000000000000       0x1c /tmp/ccsQreMh.o
 .text.ENET_SetMII
                0x0000000000000000       0x34 /tmp/ccsQreMh.o
 .text.ENET_GetMacAddr
                0x0000000000000000       0x20 /tmp/ccsQreMh.o
 .text.ENET_GetRxErrBeforeReadFrame
                0x0000000000000000       0x54 /tmp/ccsQreMh.o
 .text.ENET_AddMulticastGroup
                0x0000000000000000       0x64 /tmp/ccsQreMh.o
 .text.ENET_LeaveMulticastGroup
                0x0000000000000000       0x68 /tmp/ccsQreMh.o
 .text.ENET_CommonFrame0IRQHandler
                0x0000000000000000       0x74 /tmp/ccsQreMh.o
 .text.ENET_DriverIRQHandler
                0x0000000000000000       0x18 /tmp/ccsQreMh.o
 .text          0x0000000000000000        0x0 /tmp/cc5r2u4g.o
 .data          0x0000000000000000        0x0 /tmp/cc5r2u4g.o
 .bss           0x0000000000000000        0x0 /tmp/cc5r2u4g.o
 .text          0x0000000000000000        0x0 /tmp/ccRgE7xg.o
 .data          0x0000000000000000        0x0 /tmp/ccRgE7xg.o
 .bss           0x0000000000000000        0x0 /tmp/ccRgE7xg.o
 .text.xEventGroupClearBits
                0x0000000000000000       0x46 /tmp/ccRgE7xg.o
 .text.vEventGroupClearBitsCallback
                0x0000000000000000        0x4 /tmp/ccRgE7xg.o
 .text.xEventGroupClearBitsFromISR
                0x0000000000000000       0x10 /tmp/ccRgE7xg.o
 .text.xEventGroupGetBitsFromISR
                0x0000000000000000       0x1c /tmp/ccRgE7xg.o
 .text.xEventGroupSync
                0x0000000000000000       0xd0 /tmp/ccRgE7xg.o
 .text.vEventGroupDelete
                0x0000000000000000       0x40 /tmp/ccRgE7xg.o
 .text.uxEventGroupGetNumber
                0x0000000000000000        0x6 /tmp/ccRgE7xg.o
 .text.vEventGroupSetNumber
                0x0000000000000000        0x4 /tmp/ccRgE7xg.o
 .text          0x0000000000000000        0x0 /tmp/ccUz6o7f.o
 .data          0x0000000000000000        0x0 /tmp/ccUz6o7f.o
 .bss           0x0000000000000000        0x0 /tmp/ccUz6o7f.o
 .text          0x0000000000000000        0x0 /tmp/ccADnpPf.o
 .data          0x0000000000000000        0x0 /tmp/ccADnpPf.o
 .bss           0x0000000000000000        0x0 /tmp/ccADnpPf.o
 .text.vPortEndScheduler
                0x0000000000000000        0xc /tmp/ccADnpPf.o
 .text          0x0000000000000000        0x0 /tmp/ccAzOx0f.o
 .data          0x0000000000000000        0x0 /tmp/ccAzOx0f.o
 .bss           0x0000000000000000        0x0 /tmp/ccAzOx0f.o
 .text.xQueueGiveMutexRecursive
                0x0000000000000000       0x3c /tmp/ccAzOx0f.o
 .text.xQueueGiveFromISR
                0x0000000000000000       0xa8 /tmp/ccAzOx0f.o
 .text.xQueueTakeMutexRecursive
                0x0000000000000000       0x40 /tmp/ccAzOx0f.o
 .text.xQueuePeek
                0x0000000000000000      0x148 /tmp/ccAzOx0f.o
 .text.xQueueReceiveFromISR
                0x0000000000000000       0xa0 /tmp/ccAzOx0f.o
 .text.xQueuePeekFromISR
                0x0000000000000000       0x78 /tmp/ccAzOx0f.o
 .text.uxQueueMessagesWaiting
                0x0000000000000000       0x26 /tmp/ccAzOx0f.o
 .text.uxQueueSpacesAvailable
                0x0000000000000000       0x2a /tmp/ccAzOx0f.o
 .text.uxQueueMessagesWaitingFromISR
                0x0000000000000000       0x18 /tmp/ccAzOx0f.o
 .text.uxQueueGetQueueNumber
                0x0000000000000000        0x4 /tmp/ccAzOx0f.o
 .text.vQueueSetQueueNumber
                0x0000000000000000        0x4 /tmp/ccAzOx0f.o
 .text.ucQueueGetQueueType
                0x0000000000000000        0x6 /tmp/ccAzOx0f.o
 .text.xQueueIsQueueEmptyFromISR
                0x0000000000000000       0x1e /tmp/ccAzOx0f.o
 .text.xQueueIsQueueFullFromISR
                0x0000000000000000       0x20 /tmp/ccAzOx0f.o
 .text.pcQueueGetName
                0x0000000000000000       0x24 /tmp/ccAzOx0f.o
 .text          0x0000000000000000        0x0 /tmp/cck5G0wg.o
 .data          0x0000000000000000        0x0 /tmp/cck5G0wg.o
 .bss           0x0000000000000000        0x0 /tmp/cck5G0wg.o
 .text.prvBytesInBuffer
                0x0000000000000000       0x12 /tmp/cck5G0wg.o
 .text.prvInitialiseNewStreamBuffer
                0x0000000000000000       0x40 /tmp/cck5G0wg.o
 .text.prvWriteBytesToBuffer
                0x0000000000000000       0x86 /tmp/cck5G0wg.o
 .text.prvWriteMessageToBuffer
                0x0000000000000000       0x40 /tmp/cck5G0wg.o
 .text.prvReadBytesFromBuffer
                0x0000000000000000       0x94 /tmp/cck5G0wg.o
 .text.xStreamBufferGenericCreate
                0x0000000000000000       0x78 /tmp/cck5G0wg.o
 .text.vStreamBufferDelete
                0x0000000000000000       0x26 /tmp/cck5G0wg.o
 .text.xStreamBufferReset
                0x0000000000000000       0x4c /tmp/cck5G0wg.o
 .text.xStreamBufferSetTriggerLevel
                0x0000000000000000       0x28 /tmp/cck5G0wg.o
 .text.xStreamBufferSpacesAvailable
                0x0000000000000000       0x28 /tmp/cck5G0wg.o
 .text.xStreamBufferBytesAvailable
                0x0000000000000000       0x18 /tmp/cck5G0wg.o
 .text.xStreamBufferSend
                0x0000000000000000      0x10a /tmp/cck5G0wg.o
 .text.xStreamBufferSendFromISR
                0x0000000000000000       0x98 /tmp/cck5G0wg.o
 .text.xStreamBufferReceive
                0x0000000000000000       0xfa /tmp/cck5G0wg.o
 .text.xStreamBufferNextMessageLengthBytes
                0x0000000000000000       0x56 /tmp/cck5G0wg.o
 .text.xStreamBufferReceiveFromISR
                0x0000000000000000       0xbc /tmp/cck5G0wg.o
 .text.xStreamBufferIsEmpty
                0x0000000000000000       0x20 /tmp/cck5G0wg.o
 .text.xStreamBufferIsFull
                0x0000000000000000       0x30 /tmp/cck5G0wg.o
 .text.xStreamBufferSendCompletedFromISR
                0x0000000000000000       0x4c /tmp/cck5G0wg.o
 .text.xStreamBufferReceiveCompletedFromISR
                0x0000000000000000       0x4c /tmp/cck5G0wg.o
 .text.uxStreamBufferGetStreamBufferNumber
                0x0000000000000000        0x4 /tmp/cck5G0wg.o
 .text.vStreamBufferSetStreamBufferNumber
                0x0000000000000000        0x4 /tmp/cck5G0wg.o
 .text.ucStreamBufferGetStreamBufferType
                0x0000000000000000        0x8 /tmp/cck5G0wg.o
 .comment       0x0000000000000000       0x32 /tmp/cck5G0wg.o
 .ARM.attributes
                0x0000000000000000       0x39 /tmp/cck5G0wg.o
 .text          0x0000000000000000        0x0 /tmp/ccsSVoQh.o
 .data          0x0000000000000000        0x0 /tmp/ccsSVoQh.o
 .bss           0x0000000000000000        0x0 /tmp/ccsSVoQh.o
 .text.prvTaskIsTaskSuspended.part.0
                0x0000000000000000       0x12 /tmp/ccsSVoQh.o
 .text.eTaskGetState
                0x0000000000000000       0x84 /tmp/ccsSVoQh.o
 .text.uxTaskPriorityGet
                0x0000000000000000       0x1c /tmp/ccsSVoQh.o
 .text.uxTaskPriorityGetFromISR
                0x0000000000000000       0x30 /tmp/ccsSVoQh.o
 .text.vTaskPrioritySet
                0x0000000000000000       0xd4 /tmp/ccsSVoQh.o
 .text.vTaskResume
                0x0000000000000000       0x98 /tmp/ccsSVoQh.o
 .text.xTaskResumeFromISR
                0x0000000000000000       0xa8 /tmp/ccsSVoQh.o
 .text.vTaskEndScheduler
                0x0000000000000000       0x20 /tmp/ccsSVoQh.o
 .text.xTaskGetTickCountFromISR
                0x0000000000000000       0x10 /tmp/ccsSVoQh.o
 .text.uxTaskGetNumberOfTasks
                0x0000000000000000        0xc /tmp/ccsSVoQh.o
 .text.pcTaskGetName
                0x0000000000000000       0x24 /tmp/ccsSVoQh.o
 .text.vTaskDelayUntil
                0x0000000000000000       0x98 /tmp/ccsSVoQh.o
 .text.vTaskSuspend
                0x0000000000000000       0xd8 /tmp/ccsSVoQh.o
 .text.vTaskSetTimeOutState
                0x0000000000000000       0x38 /tmp/ccsSVoQh.o
 .text.uxTaskGetTaskNumber
                0x0000000000000000        0x6 /tmp/ccsSVoQh.o
 .text.vTaskSetTaskNumber
                0x0000000000000000        0x6 /tmp/ccsSVoQh.o
 .text.vTaskSetThreadLocalStoragePointer
                0x0000000000000000       0x18 /tmp/ccsSVoQh.o
 .text.pvTaskGetThreadLocalStoragePointer
                0x0000000000000000       0x1c /tmp/ccsSVoQh.o
 .text.vTaskGetInfo
                0x0000000000000000       0x7c /tmp/ccsSVoQh.o
 .text.prvListTasksWithinSingleList
                0x0000000000000000       0x5a /tmp/ccsSVoQh.o
 .text.uxTaskGetSystemState
                0x0000000000000000       0xa4 /tmp/ccsSVoQh.o
 .text.xTaskGetCurrentTaskHandle
                0x0000000000000000        0xc /tmp/ccsSVoQh.o
 .text.vTaskList
                0x0000000000000000       0xa8 /tmp/ccsSVoQh.o
 .text.ulTaskNotifyTake
                0x0000000000000000       0x64 /tmp/ccsSVoQh.o
 .text.xTaskNotifyWait
                0x0000000000000000       0x8c /tmp/ccsSVoQh.o
 .text.xTaskGenericNotify
                0x0000000000000000       0xe8 /tmp/ccsSVoQh.o
 .text.xTaskGenericNotifyFromISR
                0x0000000000000000      0x118 /tmp/ccsSVoQh.o
 .text.vTaskNotifyGiveFromISR
                0x0000000000000000       0xc8 /tmp/ccsSVoQh.o
 .text.xTaskNotifyStateClear
                0x0000000000000000       0x2c /tmp/ccsSVoQh.o
 .rodata        0x0000000000000000       0x1c /tmp/ccsSVoQh.o
 .rodata.CSWTCH.205
                0x0000000000000000        0x5 /tmp/ccsSVoQh.o
 .rodata.vTaskList.str1.1
                0x0000000000000000        0xf /tmp/ccsSVoQh.o
 .text          0x0000000000000000        0x0 /tmp/ccP58Erj.o
 .data          0x0000000000000000        0x0 /tmp/ccP58Erj.o
 .bss           0x0000000000000000        0x0 /tmp/ccP58Erj.o
 .text.xTimerCreate
                0x0000000000000000       0x5a /tmp/ccP58Erj.o
 .text.xTimerGetTimerDaemonTaskHandle
                0x0000000000000000       0x20 /tmp/ccP58Erj.o
 .text.xTimerGetPeriod
                0x0000000000000000       0x18 /tmp/ccP58Erj.o
 .text.vTimerSetReloadMode
                0x0000000000000000       0x3a /tmp/ccP58Erj.o
 .text.xTimerGetExpiryTime
                0x0000000000000000       0x18 /tmp/ccP58Erj.o
 .text.pcTimerGetName
                0x0000000000000000       0x18 /tmp/ccP58Erj.o
 .text.xTimerIsTimerActive
                0x0000000000000000       0x2c /tmp/ccP58Erj.o
 .text.pvTimerGetTimerID
                0x0000000000000000       0x26 /tmp/ccP58Erj.o
 .text.vTimerSetTimerID
                0x0000000000000000       0x28 /tmp/ccP58Erj.o
 .text.xTimerPendFunctionCall
                0x0000000000000000       0x40 /tmp/ccP58Erj.o
 .text.uxTimerGetTimerNumber
                0x0000000000000000        0x4 /tmp/ccP58Erj.o
 .text.vTimerSetTimerNumber
                0x0000000000000000        0x4 /tmp/ccP58Erj.o
 .text          0x0000000000000000        0x0 /tmp/ccHOtvel.o
 .data          0x0000000000000000        0x0 /tmp/ccHOtvel.o
 .bss           0x0000000000000000        0x0 /tmp/ccHOtvel.o
 .text.FTFx_CACHE_Init
                0x0000000000000000       0x28 /tmp/ccHOtvel.o
 .text.FTFx_CACHE_PflashSetPrefetchSpeculation
                0x0000000000000000       0x3c /tmp/ccHOtvel.o
 .text.FTFx_CACHE_PflashGetPrefetchSpeculation
                0x0000000000000000       0x30 /tmp/ccHOtvel.o
 .text.fmc_flash_cache_clear
                0x0000000000000000       0x1c /tmp/ccHOtvel.o
 .text.fmc_flash_prefetch_speculation_clear
                0x0000000000000000       0x1c /tmp/ccHOtvel.o
 .text.FTFx_CACHE_ClearCachePrefetchSpeculation
                0x0000000000000000       0x14 /tmp/ccHOtvel.o
 .bss.s_ftfxCommonBitOperation
                0x0000000000000000       0x40 /tmp/ccHOtvel.o
 .rodata.s_ftfxCommonBitOperationFunctionCode
                0x0000000000000000       0x1c /tmp/ccHOtvel.o
 .comment       0x0000000000000000       0x32 /tmp/ccHOtvel.o
 .ARM.attributes
                0x0000000000000000       0x39 /tmp/ccHOtvel.o
 .text          0x0000000000000000        0x0 /tmp/ccYuZcqn.o
 .data          0x0000000000000000        0x0 /tmp/ccYuZcqn.o
 .bss           0x0000000000000000        0x0 /tmp/ccYuZcqn.o
 .text.ftfx_command_sequence.isra.0
                0x0000000000000000       0x34 /tmp/ccYuZcqn.o
 .text.ftfx_check_mem_range
                0x0000000000000000       0x32 /tmp/ccYuZcqn.o
 .text.ftfx_read_word_from_byte_address
                0x0000000000000000       0x20 /tmp/ccYuZcqn.o
 .text.ftfx_write_word_to_byte_address
                0x0000000000000000       0x1a /tmp/ccYuZcqn.o
 .text.FTFx_API_Init
                0x0000000000000000       0x60 /tmp/ccYuZcqn.o
 .text.FTFx_CMD_Erase
                0x0000000000000000       0x70 /tmp/ccYuZcqn.o
 .text.FTFx_CMD_EraseAll
                0x0000000000000000       0x28 /tmp/ccYuZcqn.o
 .text.FTFx_CMD_EraseAllExecuteOnlySegments
                0x0000000000000000       0x28 /tmp/ccYuZcqn.o
 .text.FTFx_CMD_Program
                0x0000000000000000       0x8c /tmp/ccYuZcqn.o
 .text.FTFx_CMD_ProgramOnce
                0x0000000000000000       0x70 /tmp/ccYuZcqn.o
 .text.FTFx_CMD_ProgramSection
                0x0000000000000000       0xb0 /tmp/ccYuZcqn.o
 .text.FTFx_CMD_ReadOnce
                0x0000000000000000       0x7c /tmp/ccYuZcqn.o
 .text.FTFx_CMD_ReadResource
                0x0000000000000000       0xe4 /tmp/ccYuZcqn.o
 .text.FTFx_CMD_VerifyErase
                0x0000000000000000       0x9c /tmp/ccYuZcqn.o
 .text.FTFx_CMD_VerifyEraseAll
                0x0000000000000000       0x20 /tmp/ccYuZcqn.o
 .text.FTFx_CMD_VerifyEraseAllExecuteOnlySegments
                0x0000000000000000       0x20 /tmp/ccYuZcqn.o
 .text.FTFx_CMD_VerifyProgram
                0x0000000000000000       0x9c /tmp/ccYuZcqn.o
 .text.FTFx_CMD_SecurityBypass
                0x0000000000000000       0x68 /tmp/ccYuZcqn.o
 .text.FTFx_REG_GetSecurityState
                0x0000000000000000       0x3c /tmp/ccYuZcqn.o
 .text.FTFx_CMD_SwapControl
                0x0000000000000000       0x70 /tmp/ccYuZcqn.o
 .bss.s_ftfxRunCommand
                0x0000000000000000       0x40 /tmp/ccYuZcqn.o
 .rodata.s_ftfxRunCommandFunctionCode
                0x0000000000000000        0xc /tmp/ccYuZcqn.o
 .comment       0x0000000000000000       0x32 /tmp/ccYuZcqn.o
 .ARM.attributes
                0x0000000000000000       0x39 /tmp/ccYuZcqn.o
 .text          0x0000000000000000        0x0 /tmp/ccqX7CXp.o
 .data          0x0000000000000000        0x0 /tmp/ccqX7CXp.o
 .bss           0x0000000000000000        0x0 /tmp/ccqX7CXp.o
 .text.flash_check_range_to_get_index
                0x0000000000000000       0x24 /tmp/ccqX7CXp.o
 .text.flash_convert_start_address
                0x0000000000000000       0x1e /tmp/ccqX7CXp.o
 .text.FLASH_Init
                0x0000000000000000       0x8c /tmp/ccqX7CXp.o
 .text.FLASH_Erase
                0x0000000000000000       0x40 /tmp/ccqX7CXp.o
 .text.FLASH_EraseAll
                0x0000000000000000        0x4 /tmp/ccqX7CXp.o
 .text.FLASH_Program
                0x0000000000000000       0x42 /tmp/ccqX7CXp.o
 .text.FLASH_ProgramOnce
                0x0000000000000000        0x4 /tmp/ccqX7CXp.o
 .text.FLASH_ProgramSection
                0x0000000000000000       0x42 /tmp/ccqX7CXp.o
 .text.FLASH_ReadResource
                0x0000000000000000       0x10 /tmp/ccqX7CXp.o
 .text.FLASH_ReadOnce
                0x0000000000000000        0x4 /tmp/ccqX7CXp.o
 .text.FLASH_VerifyErase
                0x0000000000000000       0x40 /tmp/ccqX7CXp.o
 .text.FLASH_VerifyEraseAll
                0x0000000000000000        0x4 /tmp/ccqX7CXp.o
 .text.FLASH_VerifyProgram
                0x0000000000000000       0x50 /tmp/ccqX7CXp.o
 .text.FLASH_GetSecurityState
                0x0000000000000000        0x4 /tmp/ccqX7CXp.o
 .text.FLASH_SecurityBypass
                0x0000000000000000        0x4 /tmp/ccqX7CXp.o
 .text.FLASH_Swap
                0x0000000000000000       0xec /tmp/ccqX7CXp.o
 .text.FLASH_IsProtected
                0x0000000000000000      0x158 /tmp/ccqX7CXp.o
 .text.FLASH_PflashSetProtection
                0x0000000000000000       0x38 /tmp/ccqX7CXp.o
 .text.FLASH_PflashGetProtection
                0x0000000000000000       0x2c /tmp/ccqX7CXp.o
 .text.FLASH_GetProperty
                0x0000000000000000       0x68 /tmp/ccqX7CXp.o
 .rodata.kPFlashDensities
                0x0000000000000000       0x1e /tmp/ccqX7CXp.o
 .comment       0x0000000000000000       0x32 /tmp/ccqX7CXp.o
 .ARM.attributes
                0x0000000000000000       0x39 /tmp/ccqX7CXp.o
 .text          0x0000000000000000        0x0 /tmp/ccZt1oDs.o
 .data          0x0000000000000000        0x0 /tmp/ccZt1oDs.o
 .bss           0x0000000000000000        0x0 /tmp/ccZt1oDs.o
 .comment       0x0000000000000000       0x32 /tmp/ccZt1oDs.o
 .ARM.attributes
                0x0000000000000000       0x39 /tmp/ccZt1oDs.o
 .text          0x0000000000000000        0x0 /tmp/cciPt9sv.o
 .data          0x0000000000000000        0x0 /tmp/cciPt9sv.o
 .bss           0x0000000000000000        0x0 /tmp/cciPt9sv.o
 .text.GPIO_PinInit
                0x0000000000000000       0x2a /tmp/cciPt9sv.o
 .text.GPIO_PortGetInterruptFlags
                0x0000000000000000       0x48 /tmp/cciPt9sv.o
 .text.GPIO_PortClearInterruptFlags
                0x0000000000000000       0x48 /tmp/cciPt9sv.o
 .rodata.s_portBases
                0x0000000000000000       0x14 /tmp/cciPt9sv.o
 .comment       0x0000000000000000       0x32 /tmp/cciPt9sv.o
 .ARM.attributes
                0x0000000000000000       0x39 /tmp/cciPt9sv.o
 .text          0x0000000000000000        0x0 /tmp/ccvPAeyy.o
 .data          0x0000000000000000        0x0 /tmp/ccvPAeyy.o
 .bss           0x0000000000000000        0x0 /tmp/ccvPAeyy.o
 .text.DbgConsole_ReadOneCharacter
                0x0000000000000000       0x18 /tmp/ccvPAeyy.o
 .text.DbgConsole_SendData
                0x0000000000000000        0x4 /tmp/ccvPAeyy.o
 .text.DbgConsole_ReadLine
                0x0000000000000000       0x40 /tmp/ccvPAeyy.o
 .text.DbgConsole_ReadCharacter
                0x0000000000000000       0x12 /tmp/ccvPAeyy.o
 .text.DbgConsole_Deinit
                0x0000000000000000       0x28 /tmp/ccvPAeyy.o
 .text.DbgConsole_Flush
                0x0000000000000000        0x4 /tmp/ccvPAeyy.o
 .text.DbgConsole_Putchar
                0x0000000000000000       0x16 /tmp/ccvPAeyy.o
 .text.DbgConsole_Scanf
                0x0000000000000000       0x34 /tmp/ccvPAeyy.o
 .text.DbgConsole_Getchar
                0x0000000000000000       0x18 /tmp/ccvPAeyy.o
 .text._write   0x0000000000000000       0x20 /tmp/ccvPAeyy.o
 .text._read    0x0000000000000000       0x4a /tmp/ccvPAeyy.o
 .bss.s_debugConsoleReadWaitSemaphore
                0x0000000000000000        0x1 /tmp/ccvPAeyy.o
 .text          0x0000000000000000        0x0 /tmp/cc6q353B.o
 .data          0x0000000000000000        0x0 /tmp/cc6q353B.o
 .bss           0x0000000000000000        0x0 /tmp/cc6q353B.o
 .text.ScanIgnoreWhiteSpace
                0x0000000000000000       0x20 /tmp/cc6q353B.o
 .text.StrFormatScanf
                0x0000000000000000      0x24e /tmp/cc6q353B.o
 .text          0x0000000000000000        0x0 /tmp/ccib2XaG.o
 .data          0x0000000000000000        0x0 /tmp/ccib2XaG.o
 .bss           0x0000000000000000        0x0 /tmp/ccib2XaG.o
 .text.UART_TransferGetRxRingBufferLength
                0x0000000000000000       0x26 /tmp/ccib2XaG.o
 .text.UART_Deinit
                0x0000000000000000       0x3c /tmp/ccib2XaG.o
 .text.UART_SetBaudRate
                0x0000000000000000       0x70 /tmp/ccib2XaG.o
 .text.UART_EnableInterrupts
                0x0000000000000000       0x36 /tmp/ccib2XaG.o
 .text.UART_DisableInterrupts
                0x0000000000000000       0x32 /tmp/ccib2XaG.o
 .text.UART_GetEnabledInterrupts
                0x0000000000000000       0x26 /tmp/ccib2XaG.o
 .text.UART_GetStatusFlags
                0x0000000000000000       0x16 /tmp/ccib2XaG.o
 .text.UART_TransferHandleIRQ
                0x0000000000000000      0x378 /tmp/ccib2XaG.o
 .text.UART_ClearStatusFlags
                0x0000000000000000       0x40 /tmp/ccib2XaG.o
 .text.UART_ReadBlocking
                0x0000000000000000       0x4c /tmp/ccib2XaG.o
 .text.UART_TransferCreateHandle
                0x0000000000000000       0x68 /tmp/ccib2XaG.o
 .text.UART_TransferStartRingBuffer
                0x0000000000000000       0x28 /tmp/ccib2XaG.o
 .text.UART_TransferStopRingBuffer
                0x0000000000000000       0x2e /tmp/ccib2XaG.o
 .text.UART_TransferSendNonBlocking
                0x0000000000000000       0x2c /tmp/ccib2XaG.o
 .text.UART_TransferAbortSend
                0x0000000000000000       0x16 /tmp/ccib2XaG.o
 .text.UART_TransferGetSendCount
                0x0000000000000000       0x16 /tmp/ccib2XaG.o
 .text.UART_TransferReceiveNonBlocking
                0x0000000000000000       0xe8 /tmp/ccib2XaG.o
 .text.UART_TransferAbortReceive
                0x0000000000000000       0x2a /tmp/ccib2XaG.o
 .text.UART_TransferGetReceiveCount
                0x0000000000000000       0x1e /tmp/ccib2XaG.o
 .text.UART_TransferHandleErrorIRQ
                0x0000000000000000        0x2 /tmp/ccib2XaG.o
 .rodata.s_uartIRQ
                0x0000000000000000        0x6 /tmp/ccib2XaG.o
 .text          0x0000000000000000        0x0 /tmp/ccmAgXvK.o
 .data          0x0000000000000000        0x0 /tmp/ccmAgXvK.o
 .bss           0x0000000000000000        0x0 /tmp/ccmAgXvK.o
 .text.SMC_EnterStopRamFunc
                0x0000000000000000        0x8 /tmp/ccmAgXvK.o
 .text.SMC_PreEnterWaitModes
                0x0000000000000000       0x14 /tmp/ccmAgXvK.o
 .text.SMC_PreEnterStopModes
                0x0000000000000000        0x4 /tmp/ccmAgXvK.o
 .text.SMC_PostExitWaitModes
                0x0000000000000000       0x14 /tmp/ccmAgXvK.o
 .text.SMC_PostExitStopModes
                0x0000000000000000        0x4 /tmp/ccmAgXvK.o
 .text.SMC_SetPowerModeRun
                0x0000000000000000        0xc /tmp/ccmAgXvK.o
 .text.SMC_SetPowerModeStop
                0x0000000000000000       0x30 /tmp/ccmAgXvK.o
 .text.SMC_SetPowerModeVlpr
                0x0000000000000000       0x1e /tmp/ccmAgXvK.o
 .text.SMC_SetPowerModeVlpw
                0x0000000000000000       0x1c /tmp/ccmAgXvK.o
 .text.SMC_SetPowerModeWait
                0x0000000000000000        0x4 /tmp/ccmAgXvK.o
 .text.SMC_SetPowerModeVlps
                0x0000000000000000       0x34 /tmp/ccmAgXvK.o
 .text.SMC_SetPowerModeLls
                0x0000000000000000       0x34 /tmp/ccmAgXvK.o
 .text.SMC_SetPowerModeVlls
                0x0000000000000000       0x58 /tmp/ccmAgXvK.o
 .bss.g_savedPrimask
                0x0000000000000000        0x4 /tmp/ccmAgXvK.o
 .data.s_stopRamFuncArray
                0x0000000000000000       0x18 /tmp/ccmAgXvK.o
 .comment       0x0000000000000000       0x32 /tmp/ccmAgXvK.o
 .ARM.attributes
                0x0000000000000000       0x39 /tmp/ccmAgXvK.o
 .text          0x0000000000000000        0x0 /tmp/ccJOMn0O.o
 .data          0x0000000000000000        0x0 /tmp/ccJOMn0O.o
 .bss           0x0000000000000000        0x0 /tmp/ccJOMn0O.o
 .text.SystemCoreClockUpdate
                0x0000000000000000      0x168 /tmp/ccJOMn0O.o
 .text          0x0000000000000000        0x0 /tmp/ccSzkrFT.o
 .data          0x0000000000000000        0x0 /tmp/ccSzkrFT.o
 .bss           0x0000000000000000        0x0 /tmp/ccSzkrFT.o
 .text.HAL_UartDeinit
                0x0000000000000000       0x18 /tmp/ccSzkrFT.o
 .text.HAL_UartReceiveBlocking
                0x0000000000000000       0x20 /tmp/ccSzkrFT.o
 .text          0x0000000000000000        0x0 /tmp/ccs41rvY.o
 .data          0x0000000000000000        0x0 /tmp/ccs41rvY.o
 .bss           0x0000000000000000        0x0 /tmp/ccs41rvY.o
 .text.SerialManager_Deinit
                0x0000000000000000       0x20 /tmp/ccs41rvY.o
 .text.SerialManager_CloseWriteHandle
                0x0000000000000000       0x16 /tmp/ccs41rvY.o
 .text.SerialManager_CloseReadHandle
                0x0000000000000000       0x14 /tmp/ccs41rvY.o
 .text.SerialManager_ReadBlocking
                0x0000000000000000       0x14 /tmp/ccs41rvY.o
 .text.SerialManager_EnterLowpower
                0x0000000000000000        0x4 /tmp/ccs41rvY.o
 .text.SerialManager_ExitLowpower
                0x0000000000000000        0x4 /tmp/ccs41rvY.o
 .text          0x0000000000000000        0x0 /tmp/cctHzJu3.o
 .data          0x0000000000000000        0x0 /tmp/cctHzJu3.o
 .bss           0x0000000000000000        0x0 /tmp/cctHzJu3.o
 .text.Serial_UartDeinit
                0x0000000000000000        0xa /tmp/cctHzJu3.o
 .text.Serial_UartRead
                0x0000000000000000        0x4 /tmp/cctHzJu3.o
 .text          0x0000000000000000        0x0 /tmp/ccEA1PG8.o
 .data          0x0000000000000000        0x0 /tmp/ccEA1PG8.o
 .bss           0x0000000000000000        0x0 /tmp/ccEA1PG8.o
 .text.LIST_Init
                0x0000000000000000        0xc /tmp/ccEA1PG8.o
 .text.LIST_GetList
                0x0000000000000000        0x4 /tmp/ccEA1PG8.o
 .text.LIST_AddTail
                0x0000000000000000       0x54 /tmp/ccEA1PG8.o
 .text.LIST_AddHead
                0x0000000000000000       0x54 /tmp/ccEA1PG8.o
 .text.LIST_RemoveHead
                0x0000000000000000       0x38 /tmp/ccEA1PG8.o
 .text.LIST_GetHead
                0x0000000000000000        0x4 /tmp/ccEA1PG8.o
 .text.LIST_GetNext
                0x0000000000000000        0x4 /tmp/ccEA1PG8.o
 .text.LIST_GetPrev
                0x0000000000000000        0x4 /tmp/ccEA1PG8.o
 .text.LIST_RemoveElement
                0x0000000000000000       0x44 /tmp/ccEA1PG8.o
 .text.LIST_AddPrevElement
                0x0000000000000000       0x60 /tmp/ccEA1PG8.o
 .text.LIST_GetSize
                0x0000000000000000        0x4 /tmp/ccEA1PG8.o
 .text.LIST_GetAvailableSize
                0x0000000000000000        0x8 /tmp/ccEA1PG8.o
 .comment       0x0000000000000000       0x32 /tmp/ccEA1PG8.o
 .ARM.attributes
                0x0000000000000000       0x39 /tmp/ccEA1PG8.o
 .text          0x0000000000000000        0x0 /tmp/ccZCC41d.o
 .data          0x0000000000000000        0x0 /tmp/ccZCC41d.o
 .bss           0x0000000000000000        0x0 /tmp/ccZCC41d.o
 .text.SDK_Malloc
                0x0000000000000000       0x2e /tmp/ccZCC41d.o
 .text.SDK_Free
                0x0000000000000000       0x18 /tmp/ccZCC41d.o
 .comment       0x0000000000000000       0x32 /tmp/ccZCC41d.o
 .ARM.attributes
                0x0000000000000000       0x39 /tmp/ccZCC41d.o
 .text          0x0000000000000000        0x0 /tmp/ccjnZvvj.o
 .data          0x0000000000000000        0x0 /tmp/ccjnZvvj.o
 .bss           0x0000000000000000        0x0 /tmp/ccjnZvvj.o
 .comment       0x0000000000000000       0x32 /tmp/ccjnZvvj.o
 .ARM.attributes
                0x0000000000000000       0x39 /tmp/ccjnZvvj.o
 .text          0x0000000000000000        0x0 /tmp/ccfiTncp.o
 .data          0x0000000000000000        0x0 /tmp/ccfiTncp.o
 .bss           0x0000000000000000        0x0 /tmp/ccfiTncp.o
 .text          0x0000000000000000        0x0 /tmp/ccq02Fbv.o
 .data          0x0000000000000000        0x0 /tmp/ccq02Fbv.o
 .bss           0x0000000000000000        0x0 /tmp/ccq02Fbv.o
 .text.lwip_rand
                0x0000000000000000       0x20 /tmp/ccq02Fbv.o
 .text.sys_mbox_free
                0x0000000000000000       0x28 /tmp/ccq02Fbv.o
 .text.sys_mbox_post
                0x0000000000000000       0x20 /tmp/ccq02Fbv.o
 .text.sys_mbox_trypost_fromisr
                0x0000000000000000        0x4 /tmp/ccq02Fbv.o
 .text.sys_arch_mbox_tryfetch
                0x0000000000000000       0x1e /tmp/ccq02Fbv.o
 .text.sys_mutex_free
                0x0000000000000000        0x4 /tmp/ccq02Fbv.o
 .bss._rand_value
                0x0000000000000000        0x4 /tmp/ccq02Fbv.o
 .text          0x0000000000000000        0x0 /tmp/cci4yiDB.o
 .data          0x0000000000000000        0x0 /tmp/cci4yiDB.o
 .bss           0x0000000000000000        0x0 /tmp/cci4yiDB.o
 .text.netconn_apimsg
                0x0000000000000000       0x18 /tmp/cci4yiDB.o
 .text.netconn_close_shutdown
                0x0000000000000000       0x34 /tmp/cci4yiDB.o
 .text.netconn_new_with_proto_and_callback
                0x0000000000000000       0x80 /tmp/cci4yiDB.o
 .text.netconn_prepare_delete
                0x0000000000000000       0x20 /tmp/cci4yiDB.o
 .text.netconn_delete
                0x0000000000000000       0x1c /tmp/cci4yiDB.o
 .text.netconn_getaddr
                0x0000000000000000       0x48 /tmp/cci4yiDB.o
 .text.netconn_bind
                0x0000000000000000       0x3c /tmp/cci4yiDB.o
 .text.netconn_bind_if
                0x0000000000000000       0x30 /tmp/cci4yiDB.o
 .text.netconn_connect
                0x0000000000000000       0x3c /tmp/cci4yiDB.o
 .text.netconn_disconnect
                0x0000000000000000       0x2c /tmp/cci4yiDB.o
 .text.netconn_listen_with_backlog
                0x0000000000000000       0x30 /tmp/cci4yiDB.o
 .text.netconn_tcp_recvd
                0x0000000000000000       0x38 /tmp/cci4yiDB.o
 .text.netconn_send
                0x0000000000000000       0x2c /tmp/cci4yiDB.o
 .text.netconn_sendto
                0x0000000000000000       0x14 /tmp/cci4yiDB.o
 .text.netconn_write_vectors_partly
                0x0000000000000000       0xbc /tmp/cci4yiDB.o
 .text.netconn_write_partly
                0x0000000000000000       0x18 /tmp/cci4yiDB.o
 .text.netconn_close
                0x0000000000000000        0x6 /tmp/cci4yiDB.o
 .text.netconn_err
                0x0000000000000000       0x1e /tmp/cci4yiDB.o
 .text.netconn_accept
                0x0000000000000000       0xb4 /tmp/cci4yiDB.o
 .text.netconn_recv_data
                0x0000000000000000       0xdc /tmp/cci4yiDB.o
 .text.netconn_recv_udp_raw_netbuf
                0x0000000000000000       0x28 /tmp/cci4yiDB.o
 .text.netconn_recv_udp_raw_netbuf_flags
                0x0000000000000000       0x28 /tmp/cci4yiDB.o
 .text.netconn_recv_data_tcp
                0x0000000000000000       0xac /tmp/cci4yiDB.o
 .text.netconn_recv_tcp_pbuf
                0x0000000000000000       0x28 /tmp/cci4yiDB.o
 .text.netconn_recv_tcp_pbuf_flags
                0x0000000000000000       0x28 /tmp/cci4yiDB.o
 .text.netconn_recv
                0x0000000000000000       0x88 /tmp/cci4yiDB.o
 .text.netconn_shutdown
                0x0000000000000000       0x16 /tmp/cci4yiDB.o
 .rodata.netconn_accept.str1.1
                0x0000000000000000       0x3d /tmp/cci4yiDB.o
 .rodata.netconn_bind.str1.1
                0x0000000000000000       0x1b /tmp/cci4yiDB.o
 .rodata.netconn_bind_if.str1.1
                0x0000000000000000       0x1e /tmp/cci4yiDB.o
 .rodata.netconn_close_shutdown.str1.1
                0x0000000000000000       0x1c /tmp/cci4yiDB.o
 .rodata.netconn_connect.str1.1
                0x0000000000000000       0x1e /tmp/cci4yiDB.o
 .rodata.netconn_disconnect.str1.1
                0x0000000000000000       0x21 /tmp/cci4yiDB.o
 .rodata.netconn_getaddr.str1.1
                0x0000000000000000       0x5a /tmp/cci4yiDB.o
 .rodata.netconn_listen_with_backlog.str1.1
                0x0000000000000000       0x1d /tmp/cci4yiDB.o
 .rodata.netconn_new_with_proto_and_callback.str1.1
                0x0000000000000000       0x70 /tmp/cci4yiDB.o
 .rodata.netconn_recv.str1.1
                0x0000000000000000        0xa /tmp/cci4yiDB.o
 .rodata.netconn_recv_data.str1.1
                0x0000000000000000       0x45 /tmp/cci4yiDB.o
 .rodata.netconn_recv_udp_raw_netbuf.str1.1
                0x0000000000000000       0x2a /tmp/cci4yiDB.o
 .rodata.netconn_send.str1.1
                0x0000000000000000       0x1b /tmp/cci4yiDB.o
 .rodata.netconn_tcp_recvd.str1.1
                0x0000000000000000       0x24 /tmp/cci4yiDB.o
 .rodata.netconn_write_vectors_partly.str1.1
                0x0000000000000000       0x61 /tmp/cci4yiDB.o
 .comment       0x0000000000000000       0x32 /tmp/cci4yiDB.o
 .ARM.attributes
                0x0000000000000000       0x39 /tmp/cci4yiDB.o
 .text          0x0000000000000000        0x0 /tmp/ccIqN8JI.o
 .data          0x0000000000000000        0x0 /tmp/ccIqN8JI.o
 .bss           0x0000000000000000        0x0 /tmp/ccIqN8JI.o
 .text.recv_udp
                0x0000000000000000       0x90 /tmp/ccIqN8JI.o
 .text.setup_tcp
                0x0000000000000000       0x44 /tmp/ccIqN8JI.o
 .text.lwip_netconn_do_connected
                0x0000000000000000       0x94 /tmp/ccIqN8JI.o
 .text.lwip_netconn_do_writemore
                0x0000000000000000      0x210 /tmp/ccIqN8JI.o
 .text.lwip_netconn_do_close_internal
                0x0000000000000000      0x1b0 /tmp/ccIqN8JI.o
 .text.poll_tcp
                0x0000000000000000       0x70 /tmp/ccIqN8JI.o
 .text.recv_tcp
                0x0000000000000000       0x9c /tmp/ccIqN8JI.o
 .text.err_tcp  0x0000000000000000      0x118 /tmp/ccIqN8JI.o
 .text.sent_tcp
                0x0000000000000000       0x64 /tmp/ccIqN8JI.o
 .text.lwip_netconn_is_err_msg
                0x0000000000000000       0x44 /tmp/ccIqN8JI.o
 .text.lwip_netconn_do_newconn
                0x0000000000000000       0x60 /tmp/ccIqN8JI.o
 .text.netconn_alloc
                0x0000000000000000       0x78 /tmp/ccIqN8JI.o
 .text.netconn_free
                0x0000000000000000       0x48 /tmp/ccIqN8JI.o
 .text.netconn_drain
                0x0000000000000000       0x98 /tmp/ccIqN8JI.o
 .text.accept_function
                0x0000000000000000       0xdc /tmp/ccIqN8JI.o
 .text.lwip_netconn_do_delconn
                0x0000000000000000       0xe0 /tmp/ccIqN8JI.o
 .text.lwip_netconn_do_bind
                0x0000000000000000       0x34 /tmp/ccIqN8JI.o
 .text.lwip_netconn_do_bind_if
                0x0000000000000000       0x38 /tmp/ccIqN8JI.o
 .text.lwip_netconn_do_connect
                0x0000000000000000       0xc8 /tmp/ccIqN8JI.o
 .text.lwip_netconn_do_disconnect
                0x0000000000000000       0x20 /tmp/ccIqN8JI.o
 .text.lwip_netconn_do_listen
                0x0000000000000000       0xcc /tmp/ccIqN8JI.o
 .text.lwip_netconn_do_send
                0x0000000000000000       0x40 /tmp/ccIqN8JI.o
 .text.lwip_netconn_do_recv
                0x0000000000000000       0x36 /tmp/ccIqN8JI.o
 .text.lwip_netconn_do_accepted
                0x0000000000000000       0x1a /tmp/ccIqN8JI.o
 .text.lwip_netconn_do_write
                0x0000000000000000       0xa4 /tmp/ccIqN8JI.o
 .text.lwip_netconn_do_getaddr
                0x0000000000000000       0x68 /tmp/ccIqN8JI.o
 .text.lwip_netconn_do_close
                0x0000000000000000       0x98 /tmp/ccIqN8JI.o
 .rodata.accept_function.str1.1
                0x0000000000000000       0x27 /tmp/ccIqN8JI.o
 .rodata.err_tcp.str1.1
                0x0000000000000000       0x43 /tmp/ccIqN8JI.o
 .rodata.lwip_netconn_do_close_internal.str1.1
                0x0000000000000000       0x85 /tmp/ccIqN8JI.o
 .rodata.lwip_netconn_do_connect.str1.1
                0x0000000000000000       0x15 /tmp/ccIqN8JI.o
 .rodata.lwip_netconn_do_connected.str1.1
                0x0000000000000000       0x79 /tmp/ccIqN8JI.o
 .rodata.lwip_netconn_do_delconn.str1.1
                0x0000000000000000       0x36 /tmp/ccIqN8JI.o
 .rodata.lwip_netconn_do_getaddr.str1.1
                0x0000000000000000       0x15 /tmp/ccIqN8JI.o
 .rodata.lwip_netconn_do_listen.str1.1
                0x0000000000000000       0x2d /tmp/ccIqN8JI.o
 .rodata.lwip_netconn_do_write.str1.1
                0x0000000000000000       0x14 /tmp/ccIqN8JI.o
 .rodata.lwip_netconn_do_writemore.str1.1
                0x0000000000000000       0xec /tmp/ccIqN8JI.o
 .rodata.lwip_netconn_is_err_msg.str1.1
                0x0000000000000000        0xc /tmp/ccIqN8JI.o
 .rodata.netconn_aborted
                0x0000000000000000        0x1 /tmp/ccIqN8JI.o
 .rodata.netconn_alloc.str1.1
                0x0000000000000000       0x26 /tmp/ccIqN8JI.o
 .rodata.netconn_closed
                0x0000000000000000        0x1 /tmp/ccIqN8JI.o
 .rodata.netconn_free.str1.1
                0x0000000000000000       0xa4 /tmp/ccIqN8JI.o
 .rodata.netconn_reset
                0x0000000000000000        0x1 /tmp/ccIqN8JI.o
 .rodata.recv_tcp.str1.1
                0x0000000000000000       0x77 /tmp/ccIqN8JI.o
 .rodata.recv_udp.str1.1
                0x0000000000000000       0x5f /tmp/ccIqN8JI.o
 .comment       0x0000000000000000       0x32 /tmp/ccIqN8JI.o
 .ARM.attributes
                0x0000000000000000       0x39 /tmp/ccIqN8JI.o
 .text          0x0000000000000000        0x0 /tmp/ccXlA00P.o
 .data          0x0000000000000000        0x0 /tmp/ccXlA00P.o
 .bss           0x0000000000000000        0x0 /tmp/ccXlA00P.o
 .text.err_to_errno
                0x0000000000000000       0x1c /tmp/ccXlA00P.o
 .text.lwip_strerr
                0x0000000000000000       0x20 /tmp/ccXlA00P.o
 .rodata.err_strerr
                0x0000000000000000       0x44 /tmp/ccXlA00P.o
 .rodata.err_to_errno_table
                0x0000000000000000       0x44 /tmp/ccXlA00P.o
 .rodata.lwip_strerr.str1.1
                0x0000000000000000        0xf /tmp/ccXlA00P.o
 .rodata.str1.1
                0x0000000000000000      0x126 /tmp/ccXlA00P.o
 .comment       0x0000000000000000       0x32 /tmp/ccXlA00P.o
 .ARM.attributes
                0x0000000000000000       0x39 /tmp/ccXlA00P.o
 .text          0x0000000000000000        0x0 /tmp/cczQ5JuX.o
 .data          0x0000000000000000        0x0 /tmp/cczQ5JuX.o
 .bss           0x0000000000000000        0x0 /tmp/cczQ5JuX.o
 .text.lwip_if_indextoname
                0x0000000000000000       0x2c /tmp/cczQ5JuX.o
 .text.lwip_if_nametoindex
                0x0000000000000000       0x1a /tmp/cczQ5JuX.o
 .comment       0x0000000000000000       0x32 /tmp/cczQ5JuX.o
 .ARM.attributes
                0x0000000000000000       0x39 /tmp/cczQ5JuX.o
 .text          0x0000000000000000        0x0 /tmp/ccxHLbj5.o
 .data          0x0000000000000000        0x0 /tmp/ccxHLbj5.o
 .bss           0x0000000000000000        0x0 /tmp/ccxHLbj5.o
 .text.netbuf_new
                0x0000000000000000       0x18 /tmp/ccxHLbj5.o
 .text.netbuf_delete
                0x0000000000000000       0x22 /tmp/ccxHLbj5.o
 .text.netbuf_alloc
                0x0000000000000000       0x48 /tmp/ccxHLbj5.o
 .text.netbuf_free
                0x0000000000000000       0x24 /tmp/ccxHLbj5.o
 .text.netbuf_ref
                0x0000000000000000       0x44 /tmp/ccxHLbj5.o
 .text.netbuf_chain
                0x0000000000000000       0x38 /tmp/ccxHLbj5.o
 .text.netbuf_data
                0x0000000000000000       0x40 /tmp/ccxHLbj5.o
 .text.netbuf_next
                0x0000000000000000       0x28 /tmp/ccxHLbj5.o
 .text.netbuf_first
                0x0000000000000000       0x14 /tmp/ccxHLbj5.o
 .rodata.netbuf_alloc.str1.1
                0x0000000000000000       0x3e /tmp/ccxHLbj5.o
 .rodata.netbuf_chain.str1.1
                0x0000000000000000       0x36 /tmp/ccxHLbj5.o
 .rodata.netbuf_data.str1.1
                0x0000000000000000       0x4f /tmp/ccxHLbj5.o
 .rodata.netbuf_first.str1.1
                0x0000000000000000       0x1a /tmp/ccxHLbj5.o
 .rodata.netbuf_free.str1.1
                0x0000000000000000       0x19 /tmp/ccxHLbj5.o
 .rodata.netbuf_next.str1.1
                0x0000000000000000       0x19 /tmp/ccxHLbj5.o
 .rodata.netbuf_ref.str1.1
                0x0000000000000000       0x18 /tmp/ccxHLbj5.o
 .comment       0x0000000000000000       0x32 /tmp/ccxHLbj5.o
 .ARM.attributes
                0x0000000000000000       0x39 /tmp/ccxHLbj5.o
 .text          0x0000000000000000        0x0 /tmp/ccOQyGgd.o
 .data          0x0000000000000000        0x0 /tmp/ccOQyGgd.o
 .bss           0x0000000000000000        0x0 /tmp/ccOQyGgd.o
 .comment       0x0000000000000000       0x32 /tmp/ccOQyGgd.o
 .ARM.attributes
                0x0000000000000000       0x39 /tmp/ccOQyGgd.o
 .text          0x0000000000000000        0x0 /tmp/ccuzO6rl.o
 .data          0x0000000000000000        0x0 /tmp/ccuzO6rl.o
 .bss           0x0000000000000000        0x0 /tmp/ccuzO6rl.o
 .text.netifapi_do_netif_set_addr
                0x0000000000000000        0xe /tmp/ccuzO6rl.o
 .text.netifapi_do_name_to_index
                0x0000000000000000       0x10 /tmp/ccuzO6rl.o
 .text.netifapi_do_index_to_name
                0x0000000000000000       0x16 /tmp/ccuzO6rl.o
 .text.netifapi_arp_add
                0x0000000000000000        0x6 /tmp/ccuzO6rl.o
 .text.netifapi_arp_remove
                0x0000000000000000        0x6 /tmp/ccuzO6rl.o
 .text.netifapi_netif_set_addr
                0x0000000000000000       0x34 /tmp/ccuzO6rl.o
 .text.netifapi_netif_name_to_index
                0x0000000000000000       0x24 /tmp/ccuzO6rl.o
 .text.netifapi_netif_index_to_name
                0x0000000000000000       0x1c /tmp/ccuzO6rl.o
 .text          0x0000000000000000        0x0 /tmp/ccn2xWJu.o
 .data          0x0000000000000000        0x0 /tmp/ccn2xWJu.o
 .bss           0x0000000000000000        0x0 /tmp/ccn2xWJu.o
 .text.tryget_socket
                0x0000000000000000       0x1c /tmp/ccn2xWJu.o
 .text.get_socket
                0x0000000000000000       0x14 /tmp/ccn2xWJu.o
 .text.lwip_sockopt_to_ipopt
                0x0000000000000000       0x1c /tmp/ccn2xWJu.o
 .text.alloc_socket
                0x0000000000000000       0x80 /tmp/ccn2xWJu.o
 .text.lwip_pollscan
                0x0000000000000000      0x104 /tmp/ccn2xWJu.o
 .text.lwip_link_select_cb
                0x0000000000000000       0x28 /tmp/ccn2xWJu.o
 .text.lwip_unlink_select_cb
                0x0000000000000000       0x54 /tmp/ccn2xWJu.o
 .text.lwip_selscan
                0x0000000000000000      0x144 /tmp/ccn2xWJu.o
 .text.lwip_getaddrname
                0x0000000000000000       0x7c /tmp/ccn2xWJu.o
 .text.free_socket
                0x0000000000000000       0x36 /tmp/ccn2xWJu.o
 .text.lwip_recv_tcp
                0x0000000000000000      0x118 /tmp/ccn2xWJu.o
 .text.event_callback
                0x0000000000000000      0x160 /tmp/ccn2xWJu.o
 .text.lwip_sock_make_addr.isra.1
                0x0000000000000000       0x7c /tmp/ccn2xWJu.o
 .text.lwip_recvfrom_udp_raw.isra.3
                0x0000000000000000       0xe0 /tmp/ccn2xWJu.o
 .text.lwip_socket_thread_init
                0x0000000000000000        0x2 /tmp/ccn2xWJu.o
 .text.lwip_socket_thread_cleanup
                0x0000000000000000        0x2 /tmp/ccn2xWJu.o
 .text.lwip_socket_dbg_get_socket
                0x0000000000000000       0x14 /tmp/ccn2xWJu.o
 .text.lwip_accept
                0x0000000000000000      0x138 /tmp/ccn2xWJu.o
 .text.lwip_bind
                0x0000000000000000       0x60 /tmp/ccn2xWJu.o
 .text.lwip_close
                0x0000000000000000       0x60 /tmp/ccn2xWJu.o
 .text.lwip_connect
                0x0000000000000000       0x68 /tmp/ccn2xWJu.o
 .text.lwip_listen
                0x0000000000000000       0x48 /tmp/ccn2xWJu.o
 .text.lwip_recvfrom
                0x0000000000000000       0xb8 /tmp/ccn2xWJu.o
 .text.lwip_read
                0x0000000000000000       0x12 /tmp/ccn2xWJu.o
 .text.lwip_recv
                0x0000000000000000       0x10 /tmp/ccn2xWJu.o
 .text.lwip_recvmsg
                0x0000000000000000      0x114 /tmp/ccn2xWJu.o
 .text.lwip_readv
                0x0000000000000000       0x22 /tmp/ccn2xWJu.o
 .text.lwip_sendmsg
                0x0000000000000000      0x18c /tmp/ccn2xWJu.o
 .text.lwip_sendto
                0x0000000000000000       0xcc /tmp/ccn2xWJu.o
 .text.lwip_send
                0x0000000000000000       0x74 /tmp/ccn2xWJu.o
 .text.lwip_socket
                0x0000000000000000       0x70 /tmp/ccn2xWJu.o
 .text.lwip_write
                0x0000000000000000        0x6 /tmp/ccn2xWJu.o
 .text.lwip_writev
                0x0000000000000000       0x22 /tmp/ccn2xWJu.o
 .text.lwip_select
                0x0000000000000000      0x230 /tmp/ccn2xWJu.o
 .text.lwip_poll
                0x0000000000000000       0x9c /tmp/ccn2xWJu.o
 .text.lwip_shutdown
                0x0000000000000000       0x64 /tmp/ccn2xWJu.o
 .text.lwip_getpeername
                0x0000000000000000        0x6 /tmp/ccn2xWJu.o
 .text.lwip_getsockname
                0x0000000000000000        0x6 /tmp/ccn2xWJu.o
 .text.lwip_getsockopt
                0x0000000000000000      0x208 /tmp/ccn2xWJu.o
 .text.lwip_setsockopt
                0x0000000000000000      0x1f8 /tmp/ccn2xWJu.o
 .text.lwip_ioctl
                0x0000000000000000       0x48 /tmp/ccn2xWJu.o
 .text.lwip_fcntl
                0x0000000000000000       0x94 /tmp/ccn2xWJu.o
 .text.lwip_inet_ntop
                0x0000000000000000       0x34 /tmp/ccn2xWJu.o
 .text.lwip_inet_pton
                0x0000000000000000       0x20 /tmp/ccn2xWJu.o
 .bss.select_cb_list
                0x0000000000000000        0x4 /tmp/ccn2xWJu.o
 .bss.sockets   0x0000000000000000       0x40 /tmp/ccn2xWJu.o
 .rodata.alloc_socket.str1.1
                0x0000000000000000       0x1f /tmp/ccn2xWJu.o
 .rodata.event_callback.str1.1
                0x0000000000000000        0xe /tmp/ccn2xWJu.o
 .rodata.lwip_accept.str1.1
                0x0000000000000000       0x25 /tmp/ccn2xWJu.o
 .rodata.lwip_bind.str1.1
                0x0000000000000000       0x1b /tmp/ccn2xWJu.o
 .rodata.lwip_close.str1.1
                0x0000000000000000       0x17 /tmp/ccn2xWJu.o
 .rodata.lwip_connect.str1.1
                0x0000000000000000       0x1e /tmp/ccn2xWJu.o
 .rodata.lwip_poll.str1.1
                0x0000000000000000       0x17 /tmp/ccn2xWJu.o
 .rodata.lwip_pollscan.str1.1
                0x0000000000000000       0x25 /tmp/ccn2xWJu.o
 .rodata.lwip_recv_tcp.str1.1
                0x0000000000000000       0x71 /tmp/ccn2xWJu.o
 .rodata.lwip_recvfrom_udp_raw.isra.3.str1.1
                0x0000000000000000       0x35 /tmp/ccn2xWJu.o
 .rodata.lwip_recvmsg.str1.1
                0x0000000000000000       0x46 /tmp/ccn2xWJu.o
 .rodata.lwip_sendmsg.str1.1
                0x0000000000000000       0xa4 /tmp/ccn2xWJu.o
 .rodata.lwip_sendto.str1.1
                0x0000000000000000       0x1d /tmp/ccn2xWJu.o
 .rodata.lwip_setsockopt.str1.1
                0x0000000000000000       0x2a /tmp/ccn2xWJu.o
 .rodata.lwip_sock_make_addr.isra.1.str1.1
                0x0000000000000000       0x2e /tmp/ccn2xWJu.o
 .rodata.lwip_sockopt_to_ipopt.str1.1
                0x0000000000000000       0x16 /tmp/ccn2xWJu.o
 .rodata.lwip_unlink_select_cb.str1.1
                0x0000000000000000       0x30 /tmp/ccn2xWJu.o
 .comment       0x0000000000000000       0x32 /tmp/ccn2xWJu.o
 .ARM.attributes
                0x0000000000000000       0x39 /tmp/ccn2xWJu.o
 .text          0x0000000000000000        0x0 /tmp/cc2f07iE.o
 .data          0x0000000000000000        0x0 /tmp/cc2f07iE.o
 .bss           0x0000000000000000        0x0 /tmp/cc2f07iE.o
 .text.pbuf_free_int
                0x0000000000000000        0x4 /tmp/cc2f07iE.o
 .text.tcpip_callback
                0x0000000000000000       0x3c /tmp/cc2f07iE.o
 .text.tcpip_try_callback
                0x0000000000000000       0x44 /tmp/cc2f07iE.o
 .text.tcpip_send_msg_wait_sem
                0x0000000000000000       0x20 /tmp/cc2f07iE.o
 .text.tcpip_callbackmsg_new
                0x0000000000000000       0x18 /tmp/cc2f07iE.o
 .text.tcpip_callbackmsg_delete
                0x0000000000000000        0x8 /tmp/cc2f07iE.o
 .text.tcpip_callbackmsg_trycallback
                0x0000000000000000       0x24 /tmp/cc2f07iE.o
 .text.tcpip_callbackmsg_trycallback_fromisr
                0x0000000000000000       0x24 /tmp/cc2f07iE.o
 .text.pbuf_free_callback
                0x0000000000000000        0xc /tmp/cc2f07iE.o
 .text.mem_free_callback
                0x0000000000000000        0xc /tmp/cc2f07iE.o
 .text          0x0000000000000000        0x0 /tmp/ccKVAT1N.o
 .data          0x0000000000000000        0x0 /tmp/ccKVAT1N.o
 .bss           0x0000000000000000        0x0 /tmp/ccKVAT1N.o
 .comment       0x0000000000000000       0x32 /tmp/ccKVAT1N.o
 .ARM.attributes
                0x0000000000000000       0x39 /tmp/ccKVAT1N.o
 .text          0x0000000000000000        0x0 /tmp/ccidQQTX.o
 .data          0x0000000000000000        0x0 /tmp/ccidQQTX.o
 .bss           0x0000000000000000        0x0 /tmp/ccidQQTX.o
 .comment       0x0000000000000000       0x32 /tmp/ccidQQTX.o
 .ARM.attributes
                0x0000000000000000       0x39 /tmp/ccidQQTX.o
 .text          0x0000000000000000        0x0 /tmp/ccraETU7.o
 .data          0x0000000000000000        0x0 /tmp/ccraETU7.o
 .bss           0x0000000000000000        0x0 /tmp/ccraETU7.o
 .comment       0x0000000000000000       0x32 /tmp/ccraETU7.o
 .ARM.attributes
                0x0000000000000000       0x39 /tmp/ccraETU7.o
 .text          0x0000000000000000        0x0 /tmp/ccO6ZU8h.o
 .data          0x0000000000000000        0x0 /tmp/ccO6ZU8h.o
 .bss           0x0000000000000000        0x0 /tmp/ccO6ZU8h.o
 .text.lwip_strnstr
                0x0000000000000000       0x3e /tmp/ccO6ZU8h.o
 .text.lwip_stricmp
                0x0000000000000000       0x2e /tmp/ccO6ZU8h.o
 .text.lwip_strnicmp
                0x0000000000000000       0x3a /tmp/ccO6ZU8h.o
 .text.lwip_itoa
                0x0000000000000000       0x66 /tmp/ccO6ZU8h.o
 .text          0x0000000000000000        0x0 /tmp/cc7K4uvs.o
 .data          0x0000000000000000        0x0 /tmp/cc7K4uvs.o
 .bss           0x0000000000000000        0x0 /tmp/cc7K4uvs.o
 .comment       0x0000000000000000       0x32 /tmp/cc7K4uvs.o
 .ARM.attributes
                0x0000000000000000       0x39 /tmp/cc7K4uvs.o
 .text          0x0000000000000000        0x0 /tmp/cc2H0S6C.o
 .data          0x0000000000000000        0x0 /tmp/cc2H0S6C.o
 .bss           0x0000000000000000        0x0 /tmp/cc2H0S6C.o
 .text.inet_chksum_pseudo_partial
                0x0000000000000000       0xbc /tmp/cc2H0S6C.o
 .text.ip_chksum_pseudo_partial
                0x0000000000000000        0xa /tmp/cc2H0S6C.o
 .rodata.inet_chksum_pseudo_partial.str1.1
                0x0000000000000000        0xa /tmp/cc2H0S6C.o
 .text          0x0000000000000000        0x0 /tmp/ccsKxQTN.o
 .data          0x0000000000000000        0x0 /tmp/ccsKxQTN.o
 .bss           0x0000000000000000        0x0 /tmp/ccsKxQTN.o
 .text          0x0000000000000000        0x0 /tmp/ccQbXjQY.o
 .data          0x0000000000000000        0x0 /tmp/ccQbXjQY.o
 .bss           0x0000000000000000        0x0 /tmp/ccQbXjQY.o
 .text          0x0000000000000000        0x0 /tmp/ccH0n6V9.o
 .data          0x0000000000000000        0x0 /tmp/ccH0n6V9.o
 .bss           0x0000000000000000        0x0 /tmp/ccH0n6V9.o
 .comment       0x0000000000000000       0x32 /tmp/ccH0n6V9.o
 .ARM.attributes
                0x0000000000000000       0x39 /tmp/ccH0n6V9.o
 .text          0x0000000000000000        0x0 /tmp/ccPPFMTl.o
 .data          0x0000000000000000        0x0 /tmp/ccPPFMTl.o
 .bss           0x0000000000000000        0x0 /tmp/ccPPFMTl.o
 .text.dhcp_set_struct
                0x0000000000000000       0x3c /tmp/ccPPFMTl.o
 .text.dhcp_cleanup
                0x0000000000000000       0x20 /tmp/ccPPFMTl.o
 .text.dhcp_inform
                0x0000000000000000       0x90 /tmp/ccPPFMTl.o
 .text.dhcp_network_changed
                0x0000000000000000       0x48 /tmp/ccPPFMTl.o
 .text.dhcp_release
                0x0000000000000000        0xa /tmp/ccPPFMTl.o
 .text.dhcp_stop
                0x0000000000000000        0x4 /tmp/ccPPFMTl.o
 .rodata.dhcp_network_changed.str1.1
                0x0000000000000000       0x14 /tmp/ccPPFMTl.o
 .text          0x0000000000000000        0x0 /tmp/ccVeZHiy.o
 .data          0x0000000000000000        0x0 /tmp/ccVeZHiy.o
 .bss           0x0000000000000000        0x0 /tmp/ccVeZHiy.o
 .text.etharp_cleanup_netif
                0x0000000000000000       0x28 /tmp/ccVeZHiy.o
 .text.etharp_find_addr
                0x0000000000000000       0x54 /tmp/ccVeZHiy.o
 .text.etharp_get_entry
                0x0000000000000000       0x5c /tmp/ccVeZHiy.o
 .rodata.etharp_find_addr.str1.1
                0x0000000000000000       0x22 /tmp/ccVeZHiy.o
 .text          0x0000000000000000        0x0 /tmp/cc2WF5UK.o
 .data          0x0000000000000000        0x0 /tmp/cc2WF5UK.o
 .bss           0x0000000000000000        0x0 /tmp/cc2WF5UK.o
 .text          0x0000000000000000        0x0 /tmp/cck8t4GX.o
 .data          0x0000000000000000        0x0 /tmp/cck8t4GX.o
 .bss           0x0000000000000000        0x0 /tmp/cck8t4GX.o
 .comment       0x0000000000000000       0x32 /tmp/cck8t4GX.o
 .ARM.attributes
                0x0000000000000000       0x39 /tmp/cck8t4GX.o
 .text          0x0000000000000000        0x0 /tmp/cccTnILa.o
 .data          0x0000000000000000        0x0 /tmp/cccTnILa.o
 .bss           0x0000000000000000        0x0 /tmp/cccTnILa.o
 .text.ip4_output
                0x0000000000000000       0x48 /tmp/cccTnILa.o
 .text          0x0000000000000000        0x0 /tmp/ccSBBS7n.o
 .data          0x0000000000000000        0x0 /tmp/ccSBBS7n.o
 .bss           0x0000000000000000        0x0 /tmp/ccSBBS7n.o
 .text.ip4_addr_netmask_valid
                0x0000000000000000       0x2c /tmp/ccSBBS7n.o
 .text.ip4addr_aton
                0x0000000000000000      0x12c /tmp/ccSBBS7n.o
 .text.ipaddr_addr
                0x0000000000000000       0x18 /tmp/ccSBBS7n.o
 .rodata.ip4addr_aton.str1.1
                0x0000000000000000        0xa /tmp/ccSBBS7n.o
 .text          0x0000000000000000        0x0 /tmp/ccxU5cRB.o
 .data          0x0000000000000000        0x0 /tmp/ccxU5cRB.o
 .bss           0x0000000000000000        0x0 /tmp/ccxU5cRB.o
 .text          0x0000000000000000        0x0 /tmp/ccwdryJP.o
 .data          0x0000000000000000        0x0 /tmp/ccwdryJP.o
 .bss           0x0000000000000000        0x0 /tmp/ccwdryJP.o
 .comment       0x0000000000000000       0x32 /tmp/ccwdryJP.o
 .ARM.attributes
                0x0000000000000000       0x39 /tmp/ccwdryJP.o
 .text          0x0000000000000000        0x0 /tmp/ccYv5FL3.o
 .data          0x0000000000000000        0x0 /tmp/ccYv5FL3.o
 .bss           0x0000000000000000        0x0 /tmp/ccYv5FL3.o
 .comment       0x0000000000000000       0x32 /tmp/ccYv5FL3.o
 .ARM.attributes
                0x0000000000000000       0x39 /tmp/ccYv5FL3.o
 .text          0x0000000000000000        0x0 /tmp/cckgmMWh.o
 .data          0x0000000000000000        0x0 /tmp/cckgmMWh.o
 .bss           0x0000000000000000        0x0 /tmp/cckgmMWh.o
 .comment       0x0000000000000000       0x32 /tmp/cckgmMWh.o
 .ARM.attributes
                0x0000000000000000       0x39 /tmp/cckgmMWh.o
 .text          0x0000000000000000        0x0 /tmp/cc18Dkgw.o
 .data          0x0000000000000000        0x0 /tmp/cc18Dkgw.o
 .bss           0x0000000000000000        0x0 /tmp/cc18Dkgw.o
 .comment       0x0000000000000000       0x32 /tmp/cc18Dkgw.o
 .ARM.attributes
                0x0000000000000000       0x39 /tmp/cc18Dkgw.o
 .text          0x0000000000000000        0x0 /tmp/ccYT4uIK.o
 .data          0x0000000000000000        0x0 /tmp/ccYT4uIK.o
 .bss           0x0000000000000000        0x0 /tmp/ccYT4uIK.o
 .comment       0x0000000000000000       0x32 /tmp/ccYT4uIK.o
 .ARM.attributes
                0x0000000000000000       0x39 /tmp/ccYT4uIK.o
 .text          0x0000000000000000        0x0 /tmp/ccdMf6jZ.o
 .data          0x0000000000000000        0x0 /tmp/ccdMf6jZ.o
 .bss           0x0000000000000000        0x0 /tmp/ccdMf6jZ.o
 .comment       0x0000000000000000       0x32 /tmp/ccdMf6jZ.o
 .ARM.attributes
                0x0000000000000000       0x39 /tmp/ccdMf6jZ.o
 .text          0x0000000000000000        0x0 /tmp/ccUF9E5d.o
 .data          0x0000000000000000        0x0 /tmp/ccUF9E5d.o
 .bss           0x0000000000000000        0x0 /tmp/ccUF9E5d.o
 .comment       0x0000000000000000       0x32 /tmp/ccUF9E5d.o
 .ARM.attributes
                0x0000000000000000       0x39 /tmp/ccUF9E5d.o
 .text          0x0000000000000000        0x0 /tmp/ccBRGh1s.o
 .data          0x0000000000000000        0x0 /tmp/ccBRGh1s.o
 .bss           0x0000000000000000        0x0 /tmp/ccBRGh1s.o
 .comment       0x0000000000000000       0x32 /tmp/ccBRGh1s.o
 .ARM.attributes
                0x0000000000000000       0x39 /tmp/ccBRGh1s.o
 .text          0x0000000000000000        0x0 /tmp/ccDj6z7H.o
 .data          0x0000000000000000        0x0 /tmp/ccDj6z7H.o
 .bss           0x0000000000000000        0x0 /tmp/ccDj6z7H.o
 .comment       0x0000000000000000       0x32 /tmp/ccDj6z7H.o
 .ARM.attributes
                0x0000000000000000       0x39 /tmp/ccDj6z7H.o
 .text          0x0000000000000000        0x0 /tmp/cclUbfvX.o
 .data          0x0000000000000000        0x0 /tmp/cclUbfvX.o
 .bss           0x0000000000000000        0x0 /tmp/cclUbfvX.o
 .text.mem_calloc
                0x0000000000000000       0x26 /tmp/cclUbfvX.o
 .text          0x0000000000000000        0x0 /tmp/ccenC76c.o
 .data          0x0000000000000000        0x0 /tmp/ccenC76c.o
 .bss           0x0000000000000000        0x0 /tmp/ccenC76c.o
 .text.memp_malloc_pool
                0x0000000000000000       0x20 /tmp/ccenC76c.o
 .text.memp_free_pool
                0x0000000000000000       0x18 /tmp/ccenC76c.o
 .rodata.memp_malloc_pool.str1.1
                0x0000000000000000       0x12 /tmp/ccenC76c.o
 .text          0x0000000000000000        0x0 /tmp/ccXVCA4s.o
 .data          0x0000000000000000        0x0 /tmp/ccXVCA4s.o
 .bss           0x0000000000000000        0x0 /tmp/ccXVCA4s.o
 .text.netif_input
                0x0000000000000000       0x3c /tmp/ccXVCA4s.o
 .text.netif_set_ipaddr
                0x0000000000000000       0x28 /tmp/ccXVCA4s.o
 .text.netif_set_netmask
                0x0000000000000000       0x24 /tmp/ccXVCA4s.o
 .text.netif_set_gw
                0x0000000000000000       0x24 /tmp/ccXVCA4s.o
 .text.netif_add_noaddr
                0x0000000000000000       0x16 /tmp/ccXVCA4s.o
 .text.netif_set_down
                0x0000000000000000       0x28 /tmp/ccXVCA4s.o
 .text.netif_remove
                0x0000000000000000       0x60 /tmp/ccXVCA4s.o
 .text.netif_set_link_up
                0x0000000000000000       0x38 /tmp/ccXVCA4s.o
 .text.netif_set_link_down
                0x0000000000000000       0x20 /tmp/ccXVCA4s.o
 .text.netif_index_to_name
                0x0000000000000000       0x2a /tmp/ccXVCA4s.o
 .text.netif_find
                0x0000000000000000       0x40 /tmp/ccXVCA4s.o
 .text.netif_name_to_index
                0x0000000000000000       0x12 /tmp/ccXVCA4s.o
 .rodata.netif_input.str1.1
                0x0000000000000000       0x35 /tmp/ccXVCA4s.o
 .rodata.netif_set_down.str1.1
                0x0000000000000000       0x1e /tmp/ccXVCA4s.o
 .rodata.netif_set_gw.str1.1
                0x0000000000000000       0x1c /tmp/ccXVCA4s.o
 .rodata.netif_set_ipaddr.str1.1
                0x0000000000000000       0x20 /tmp/ccXVCA4s.o
 .rodata.netif_set_link_down.str1.1
                0x0000000000000000       0x23 /tmp/ccXVCA4s.o
 .rodata.netif_set_link_up.str1.1
                0x0000000000000000       0x21 /tmp/ccXVCA4s.o
 .rodata.netif_set_netmask.str1.1
                0x0000000000000000       0x21 /tmp/ccXVCA4s.o
 .text          0x0000000000000000        0x0 /tmp/ccrkHFyJ.o
 .data          0x0000000000000000        0x0 /tmp/ccrkHFyJ.o
 .bss           0x0000000000000000        0x0 /tmp/ccrkHFyJ.o
 .text.pbuf_skip_const
                0x0000000000000000       0x16 /tmp/ccrkHFyJ.o
 .text.pbuf_add_header_force
                0x0000000000000000        0x6 /tmp/ccrkHFyJ.o
 .text.pbuf_header
                0x0000000000000000       0x10 /tmp/ccrkHFyJ.o
 .text.pbuf_free_header
                0x0000000000000000       0x30 /tmp/ccrkHFyJ.o
 .text.pbuf_dechain
                0x0000000000000000       0x54 /tmp/ccrkHFyJ.o
 .text.pbuf_get_contiguous
                0x0000000000000000       0x58 /tmp/ccrkHFyJ.o
 .text.pbuf_skip
                0x0000000000000000        0x4 /tmp/ccrkHFyJ.o
 .text.pbuf_take
                0x0000000000000000       0x88 /tmp/ccrkHFyJ.o
 .text.pbuf_take_at
                0x0000000000000000       0x68 /tmp/ccrkHFyJ.o
 .text.pbuf_coalesce
                0x0000000000000000       0x28 /tmp/ccrkHFyJ.o
 .text.pbuf_try_get_at
                0x0000000000000000       0x26 /tmp/ccrkHFyJ.o
 .text.pbuf_get_at
                0x0000000000000000        0xe /tmp/ccrkHFyJ.o
 .text.pbuf_put_at
                0x0000000000000000       0x20 /tmp/ccrkHFyJ.o
 .text.pbuf_memcmp
                0x0000000000000000       0x62 /tmp/ccrkHFyJ.o
 .text.pbuf_memfind
                0x0000000000000000       0x3c /tmp/ccrkHFyJ.o
 .text.pbuf_strstr
                0x0000000000000000       0x3a /tmp/ccrkHFyJ.o
 .rodata.pbuf_dechain.str1.1
                0x0000000000000000       0x37 /tmp/ccrkHFyJ.o
 .rodata.pbuf_get_contiguous.str1.1
                0x0000000000000000       0x46 /tmp/ccrkHFyJ.o
 .rodata.pbuf_take.str1.1
                0x0000000000000000       0x80 /tmp/ccrkHFyJ.o
 .rodata.pbuf_take_at.str1.1
                0x0000000000000000       0x17 /tmp/ccrkHFyJ.o
 .text          0x0000000000000000        0x0 /tmp/cctL5jc0.o
 .data          0x0000000000000000        0x0 /tmp/cctL5jc0.o
 .bss           0x0000000000000000        0x0 /tmp/cctL5jc0.o
 .comment       0x0000000000000000       0x32 /tmp/cctL5jc0.o
 .ARM.attributes
                0x0000000000000000       0x39 /tmp/cctL5jc0.o
 .text          0x0000000000000000        0x0 /tmp/ccDEVlYg.o
 .data          0x0000000000000000        0x0 /tmp/ccDEVlYg.o
 .bss           0x0000000000000000        0x0 /tmp/ccDEVlYg.o
 .comment       0x0000000000000000       0x32 /tmp/ccDEVlYg.o
 .ARM.attributes
                0x0000000000000000       0x39 /tmp/ccDEVlYg.o
 .text          0x0000000000000000        0x0 /tmp/ccxh9cUx.o
 .data          0x0000000000000000        0x0 /tmp/ccxh9cUx.o
 .bss           0x0000000000000000        0x0 /tmp/ccxh9cUx.o
 .text          0x0000000000000000        0x0 /tmp/ccztIRDP.o
 .data          0x0000000000000000        0x0 /tmp/ccztIRDP.o
 .bss           0x0000000000000000        0x0 /tmp/ccztIRDP.o
 .text.tcp_new_port
                0x0000000000000000       0x50 /tmp/ccztIRDP.o
 .text.tcp_backlog_delayed
                0x0000000000000000       0x38 /tmp/ccztIRDP.o
 .text.tcp_bind
                0x0000000000000000       0x94 /tmp/ccztIRDP.o
 .text.tcp_bind_netif
                0x0000000000000000       0x10 /tmp/ccztIRDP.o
 .text.tcp_listen_with_backlog_and_err
                0x0000000000000000       0xdc /tmp/ccztIRDP.o
 .text.tcp_listen_with_backlog
                0x0000000000000000        0x6 /tmp/ccztIRDP.o
 .text.tcp_txnow
                0x0000000000000000       0x20 /tmp/ccztIRDP.o
 .text.tcp_setprio
                0x0000000000000000       0x10 /tmp/ccztIRDP.o
 .text.tcp_arg  0x0000000000000000        0x6 /tmp/ccztIRDP.o
 .text.tcp_recv
                0x0000000000000000       0x20 /tmp/ccztIRDP.o
 .text.tcp_sent
                0x0000000000000000       0x1c /tmp/ccztIRDP.o
 .text.tcp_err  0x0000000000000000       0x20 /tmp/ccztIRDP.o
 .text.tcp_accept
                0x0000000000000000        0xc /tmp/ccztIRDP.o
 .text.tcp_poll
                0x0000000000000000       0x30 /tmp/ccztIRDP.o
 .text.tcp_shutdown
                0x0000000000000000       0x5c /tmp/ccztIRDP.o
 .text.tcp_accept_null
                0x0000000000000000       0x1c /tmp/ccztIRDP.o
 .text.tcp_new  0x0000000000000000        0x6 /tmp/ccztIRDP.o
 .text.tcp_new_ip_type
                0x0000000000000000        0x6 /tmp/ccztIRDP.o
 .text.tcp_connect
                0x0000000000000000      0x108 /tmp/ccztIRDP.o
 .text.tcp_debug_state_str
                0x0000000000000000        0xc /tmp/ccztIRDP.o
 .text.tcp_tcp_get_tcp_addrinfo
                0x0000000000000000       0x2a /tmp/ccztIRDP.o
 .data.tcp_port
                0x0000000000000000        0x2 /tmp/ccztIRDP.o
 .rodata.str1.1
                0x0000000000000000       0x68 /tmp/ccztIRDP.o
 .rodata.tcp_accept_null.str1.1
                0x0000000000000000       0x1d /tmp/ccztIRDP.o
 .rodata.tcp_bind.str1.1
                0x0000000000000000       0x3e /tmp/ccztIRDP.o
 .rodata.tcp_connect.str1.1
                0x0000000000000000       0x65 /tmp/ccztIRDP.o
 .rodata.tcp_err.str1.1
                0x0000000000000000       0x26 /tmp/ccztIRDP.o
 .rodata.tcp_listen_with_backlog_and_err.str1.1
                0x0000000000000000       0x91 /tmp/ccztIRDP.o
 .rodata.tcp_poll.str1.1
                0x0000000000000000       0x34 /tmp/ccztIRDP.o
 .rodata.tcp_recv.str1.1
                0x0000000000000000       0x27 /tmp/ccztIRDP.o
 .rodata.tcp_sent.str1.1
                0x0000000000000000       0x27 /tmp/ccztIRDP.o
 .rodata.tcp_setprio.str1.1
                0x0000000000000000       0x19 /tmp/ccztIRDP.o
 .rodata.tcp_shutdown.str1.1
                0x0000000000000000       0x1a /tmp/ccztIRDP.o
 .rodata.tcp_state_str
                0x0000000000000000       0x2c /tmp/ccztIRDP.o
 .text          0x0000000000000000        0x0 /tmp/cctafV97.o
 .data          0x0000000000000000        0x0 /tmp/cctafV97.o
 .bss           0x0000000000000000        0x0 /tmp/cctafV97.o
 .text          0x0000000000000000        0x0 /tmp/ccBB9Csr.o
 .data          0x0000000000000000        0x0 /tmp/ccBB9Csr.o
 .bss           0x0000000000000000        0x0 /tmp/ccBB9Csr.o
 .text.tcp_pbuf_prealloc
                0x0000000000000000       0x8c /tmp/ccBB9Csr.o
 .text.tcp_write
                0x0000000000000000      0x514 /tmp/ccBB9Csr.o
 .rodata.tcp_pbuf_prealloc.str1.1
                0x0000000000000000       0x57 /tmp/ccBB9Csr.o
 .rodata.tcp_write.str1.1
                0x0000000000000000      0x2a4 /tmp/ccBB9Csr.o
 .text          0x0000000000000000        0x0 /tmp/ccsWcM1K.o
 .data          0x0000000000000000        0x0 /tmp/ccsWcM1K.o
 .bss           0x0000000000000000        0x0 /tmp/ccsWcM1K.o
 .text.sys_untimeout
                0x0000000000000000       0x3c /tmp/ccsWcM1K.o
 .text.sys_restart_timeouts
                0x0000000000000000       0x24 /tmp/ccsWcM1K.o
 .rodata.lwip_num_cyclic_timers
                0x0000000000000000        0x4 /tmp/ccsWcM1K.o
 .text          0x0000000000000000        0x0 /tmp/cc9lNNY4.o
 .data          0x0000000000000000        0x0 /tmp/cc9lNNY4.o
 .bss           0x0000000000000000        0x0 /tmp/cc9lNNY4.o
 .text.udp_sendto
                0x0000000000000000       0x5c /tmp/cc9lNNY4.o
 .text.udp_send
                0x0000000000000000       0x2c /tmp/cc9lNNY4.o
 .text.udp_bind_netif
                0x0000000000000000       0x10 /tmp/cc9lNNY4.o
 .text.udp_disconnect
                0x0000000000000000       0x20 /tmp/cc9lNNY4.o
 .text.udp_new_ip_type
                0x0000000000000000        0x4 /tmp/cc9lNNY4.o
 .rodata.udp_disconnect.str1.1
                0x0000000000000000       0x1c /tmp/cc9lNNY4.o
 .rodata.udp_send.str1.1
                0x0000000000000000       0x2d /tmp/cc9lNNY4.o
 .rodata.udp_sendto.str1.1
                0x0000000000000000       0x4c /tmp/cc9lNNY4.o
 .text          0x0000000000000000        0x0 /tmp/ccM3Zp6o.o
 .data          0x0000000000000000        0x0 /tmp/ccM3Zp6o.o
 .bss           0x0000000000000000        0x0 /tmp/ccM3Zp6o.o
 .comment       0x0000000000000000       0x32 /tmp/ccM3Zp6o.o
 .ARM.attributes
                0x0000000000000000       0x39 /tmp/ccM3Zp6o.o
 .text          0x0000000000000000        0x0 /tmp/ccyCAOrJ.o
 .data          0x0000000000000000        0x0 /tmp/ccyCAOrJ.o
 .bss           0x0000000000000000        0x0 /tmp/ccyCAOrJ.o
 .text.bridgeif_age_tmr
                0x0000000000000000       0x48 /tmp/ccyCAOrJ.o
 .text.bridgeif_fdb_update_src
                0x0000000000000000       0x78 /tmp/ccyCAOrJ.o
 .text.bridgeif_fdb_get_dst_ports
                0x0000000000000000       0x3c /tmp/ccyCAOrJ.o
 .text.bridgeif_fdb_init
                0x0000000000000000       0x40 /tmp/ccyCAOrJ.o
 .rodata.bridgeif_age_tmr.str1.1
                0x0000000000000000        0xc /tmp/ccyCAOrJ.o
 .rodata.bridgeif_fdb_init.str1.1
                0x0000000000000000       0x1d /tmp/ccyCAOrJ.o
 .comment       0x0000000000000000       0x32 /tmp/ccyCAOrJ.o
 .ARM.attributes
                0x0000000000000000       0x39 /tmp/ccyCAOrJ.o
 .text          0x0000000000000000        0x0 /tmp/cchnibZ3.o
 .data          0x0000000000000000        0x0 /tmp/cchnibZ3.o
 .bss           0x0000000000000000        0x0 /tmp/cchnibZ3.o
 .text          0x0000000000000000        0x0 /tmp/ccmNEiFo.o
 .data          0x0000000000000000        0x0 /tmp/ccmNEiFo.o
 .bss           0x0000000000000000        0x0 /tmp/ccmNEiFo.o
 .comment       0x0000000000000000       0x32 /tmp/ccmNEiFo.o
 .ARM.attributes
                0x0000000000000000       0x39 /tmp/ccmNEiFo.o
 .text          0x0000000000000000        0x0 /tmp/cchROkuJ.o
 .data          0x0000000000000000        0x0 /tmp/cchROkuJ.o
 .bss           0x0000000000000000        0x0 /tmp/cchROkuJ.o
 .comment       0x0000000000000000       0x32 /tmp/cchROkuJ.o
 .ARM.attributes
                0x0000000000000000       0x39 /tmp/cchROkuJ.o
 .text          0x0000000000000000        0x0 /tmp/ccOqhOr4.o
 .data          0x0000000000000000        0x0 /tmp/ccOqhOr4.o
 .bss           0x0000000000000000        0x0 /tmp/ccOqhOr4.o
 .comment       0x0000000000000000       0x32 /tmp/ccOqhOr4.o
 .ARM.attributes
                0x0000000000000000       0x39 /tmp/ccOqhOr4.o
 .text          0x0000000000000000        0x0 /tmp/cckVeWxp.o
 .data          0x0000000000000000        0x0 /tmp/cckVeWxp.o
 .bss           0x0000000000000000        0x0 /tmp/cckVeWxp.o
 .comment       0x0000000000000000       0x32 /tmp/cckVeWxp.o
 .ARM.attributes
                0x0000000000000000       0x39 /tmp/cckVeWxp.o
 .text          0x0000000000000000        0x0 /tmp/ccFCHuMK.o
 .data          0x0000000000000000        0x0 /tmp/ccFCHuMK.o
 .bss           0x0000000000000000        0x0 /tmp/ccFCHuMK.o
 .comment       0x0000000000000000       0x32 /tmp/ccFCHuMK.o
 .ARM.attributes
                0x0000000000000000       0x39 /tmp/ccFCHuMK.o
 .text          0x0000000000000000        0x0 /tmp/ccdWpE95.o
 .data          0x0000000000000000        0x0 /tmp/ccdWpE95.o
 .bss           0x0000000000000000        0x0 /tmp/ccdWpE95.o
 .comment       0x0000000000000000       0x32 /tmp/ccdWpE95.o
 .ARM.attributes
                0x0000000000000000       0x39 /tmp/ccdWpE95.o
 .text          0x0000000000000000        0x0 /tmp/ccfYA4Fr.o
 .data          0x0000000000000000        0x0 /tmp/ccfYA4Fr.o
 .bss           0x0000000000000000        0x0 /tmp/ccfYA4Fr.o
 .comment       0x0000000000000000       0x32 /tmp/ccfYA4Fr.o
 .ARM.attributes
                0x0000000000000000       0x39 /tmp/ccfYA4Fr.o
 .text          0x0000000000000000        0x0 /tmp/ccwrUamN.o
 .data          0x0000000000000000        0x0 /tmp/ccwrUamN.o
 .bss           0x0000000000000000        0x0 /tmp/ccwrUamN.o
 .comment       0x0000000000000000       0x32 /tmp/ccwrUamN.o
 .ARM.attributes
                0x0000000000000000       0x39 /tmp/ccwrUamN.o
 .text          0x0000000000000000        0x0 /tmp/ccFhDhb9.o
 .data          0x0000000000000000        0x0 /tmp/ccFhDhb9.o
 .bss           0x0000000000000000        0x0 /tmp/ccFhDhb9.o
 .comment       0x0000000000000000       0x32 /tmp/ccFhDhb9.o
 .ARM.attributes
                0x0000000000000000       0x39 /tmp/ccFhDhb9.o
 .text          0x0000000000000000        0x0 /tmp/cc6ow3av.o
 .data          0x0000000000000000        0x0 /tmp/cc6ow3av.o
 .bss           0x0000000000000000        0x0 /tmp/cc6ow3av.o
 .comment       0x0000000000000000       0x32 /tmp/cc6ow3av.o
 .ARM.attributes
                0x0000000000000000       0x39 /tmp/cc6ow3av.o
 .text          0x0000000000000000        0x0 /tmp/ccapPqmR.o
 .data          0x0000000000000000        0x0 /tmp/ccapPqmR.o
 .bss           0x0000000000000000        0x0 /tmp/ccapPqmR.o
 .comment       0x0000000000000000       0x32 /tmp/ccapPqmR.o
 .ARM.attributes
                0x0000000000000000       0x39 /tmp/ccapPqmR.o
 .text          0x0000000000000000        0x0 /tmp/cchZ0jHd.o
 .data          0x0000000000000000        0x0 /tmp/cchZ0jHd.o
 .bss           0x0000000000000000        0x0 /tmp/cchZ0jHd.o
 .comment       0x0000000000000000       0x32 /tmp/cchZ0jHd.o
 .ARM.attributes
                0x0000000000000000       0x39 /tmp/cchZ0jHd.o
 .text          0x0000000000000000        0x0 /tmp/ccwXuVbA.o
 .data          0x0000000000000000        0x0 /tmp/ccwXuVbA.o
 .bss           0x0000000000000000        0x0 /tmp/ccwXuVbA.o
 .comment       0x0000000000000000       0x32 /tmp/ccwXuVbA.o
 .ARM.attributes
                0x0000000000000000       0x39 /tmp/ccwXuVbA.o
 .text          0x0000000000000000        0x0 /tmp/ccz6kUOW.o
 .data          0x0000000000000000        0x0 /tmp/ccz6kUOW.o
 .bss           0x0000000000000000        0x0 /tmp/ccz6kUOW.o
 .comment       0x0000000000000000       0x32 /tmp/ccz6kUOW.o
 .ARM.attributes
                0x0000000000000000       0x39 /tmp/ccz6kUOW.o
 .text          0x0000000000000000        0x0 /tmp/ccdDohAj.o
 .data          0x0000000000000000        0x0 /tmp/ccdDohAj.o
 .bss           0x0000000000000000        0x0 /tmp/ccdDohAj.o
 .comment       0x0000000000000000       0x32 /tmp/ccdDohAj.o
 .ARM.attributes
                0x0000000000000000       0x39 /tmp/ccdDohAj.o
 .text          0x0000000000000000        0x0 /tmp/ccJyQpuG.o
 .data          0x0000000000000000        0x0 /tmp/ccJyQpuG.o
 .bss           0x0000000000000000        0x0 /tmp/ccJyQpuG.o
 .comment       0x0000000000000000       0x32 /tmp/ccJyQpuG.o
 .ARM.attributes
                0x0000000000000000       0x39 /tmp/ccJyQpuG.o
 .text          0x0000000000000000        0x0 /tmp/cc6oHgy3.o
 .data          0x0000000000000000        0x0 /tmp/cc6oHgy3.o
 .bss           0x0000000000000000        0x0 /tmp/cc6oHgy3.o
 .comment       0x0000000000000000       0x32 /tmp/cc6oHgy3.o
 .ARM.attributes
                0x0000000000000000       0x39 /tmp/cc6oHgy3.o
 .text          0x0000000000000000        0x0 /tmp/ccFzJ6Kq.o
 .data          0x0000000000000000        0x0 /tmp/ccFzJ6Kq.o
 .bss           0x0000000000000000        0x0 /tmp/ccFzJ6Kq.o
 .comment       0x0000000000000000       0x32 /tmp/ccFzJ6Kq.o
 .ARM.attributes
                0x0000000000000000       0x39 /tmp/ccFzJ6Kq.o
 .text          0x0000000000000000        0x0 /tmp/ccb6RZ6N.o
 .data          0x0000000000000000        0x0 /tmp/ccb6RZ6N.o
 .bss           0x0000000000000000        0x0 /tmp/ccb6RZ6N.o
 .comment       0x0000000000000000       0x32 /tmp/ccb6RZ6N.o
 .ARM.attributes
                0x0000000000000000       0x39 /tmp/ccb6RZ6N.o
 .text          0x0000000000000000        0x0 /tmp/ccNVNJBb.o
 .data          0x0000000000000000        0x0 /tmp/ccNVNJBb.o
 .bss           0x0000000000000000        0x0 /tmp/ccNVNJBb.o
 .comment       0x0000000000000000       0x32 /tmp/ccNVNJBb.o
 .ARM.attributes
                0x0000000000000000       0x39 /tmp/ccNVNJBb.o
 .text          0x0000000000000000        0x0 /tmp/ccObyHhz.o
 .data          0x0000000000000000        0x0 /tmp/ccObyHhz.o
 .bss           0x0000000000000000        0x0 /tmp/ccObyHhz.o
 .comment       0x0000000000000000       0x32 /tmp/ccObyHhz.o
 .ARM.attributes
                0x0000000000000000       0x39 /tmp/ccObyHhz.o
 .text          0x0000000000000000        0x0 /tmp/cciGY57W.o
 .data          0x0000000000000000        0x0 /tmp/cciGY57W.o
 .bss           0x0000000000000000        0x0 /tmp/cciGY57W.o
 .comment       0x0000000000000000       0x32 /tmp/cciGY57W.o
 .ARM.attributes
                0x0000000000000000       0x39 /tmp/cciGY57W.o
 .text          0x0000000000000000        0x0 /tmp/ccvcVT7k.o
 .data          0x0000000000000000        0x0 /tmp/ccvcVT7k.o
 .bss           0x0000000000000000        0x0 /tmp/ccvcVT7k.o
 .comment       0x0000000000000000       0x32 /tmp/ccvcVT7k.o
 .ARM.attributes
                0x0000000000000000       0x39 /tmp/ccvcVT7k.o
 .text          0x0000000000000000        0x0 /tmp/cc12Y6gJ.o
 .data          0x0000000000000000        0x0 /tmp/cc12Y6gJ.o
 .bss           0x0000000000000000        0x0 /tmp/cc12Y6gJ.o
 .comment       0x0000000000000000       0x32 /tmp/cc12Y6gJ.o
 .ARM.attributes
                0x0000000000000000       0x39 /tmp/cc12Y6gJ.o
 .text          0x0000000000000000        0x0 /tmp/ccoj93A7.o
 .data          0x0000000000000000        0x0 /tmp/ccoj93A7.o
 .bss           0x0000000000000000        0x0 /tmp/ccoj93A7.o
 .comment       0x0000000000000000       0x32 /tmp/ccoj93A7.o
 .ARM.attributes
                0x0000000000000000       0x39 /tmp/ccoj93A7.o
 .text          0x0000000000000000        0x0 /tmp/cc6eOE5v.o
 .data          0x0000000000000000        0x0 /tmp/cc6eOE5v.o
 .bss           0x0000000000000000        0x0 /tmp/cc6eOE5v.o
 .comment       0x0000000000000000       0x32 /tmp/cc6eOE5v.o
 .ARM.attributes
                0x0000000000000000       0x39 /tmp/cc6eOE5v.o
 .text          0x0000000000000000        0x0 /tmp/ccFEBjJU.o
 .data          0x0000000000000000        0x0 /tmp/ccFEBjJU.o
 .bss           0x0000000000000000        0x0 /tmp/ccFEBjJU.o
 .comment       0x0000000000000000       0x32 /tmp/ccFEBjJU.o
 .ARM.attributes
                0x0000000000000000       0x39 /tmp/ccFEBjJU.o
 .text          0x0000000000000000        0x0 /tmp/ccR7lcwj.o
 .data          0x0000000000000000        0x0 /tmp/ccR7lcwj.o
 .bss           0x0000000000000000        0x0 /tmp/ccR7lcwj.o
 .comment       0x0000000000000000       0x32 /tmp/ccR7lcwj.o
 .ARM.attributes
                0x0000000000000000       0x39 /tmp/ccR7lcwj.o
 .text          0x0000000000000000        0x0 /tmp/cc3IxCtI.o
 .data          0x0000000000000000        0x0 /tmp/cc3IxCtI.o
 .bss           0x0000000000000000        0x0 /tmp/cc3IxCtI.o
 .comment       0x0000000000000000       0x32 /tmp/cc3IxCtI.o
 .ARM.attributes
                0x0000000000000000       0x39 /tmp/cc3IxCtI.o
 .text          0x0000000000000000        0x0 /tmp/ccJjynz7.o
 .data          0x0000000000000000        0x0 /tmp/ccJjynz7.o
 .bss           0x0000000000000000        0x0 /tmp/ccJjynz7.o
 .comment       0x0000000000000000       0x32 /tmp/ccJjynz7.o
 .ARM.attributes
                0x0000000000000000       0x39 /tmp/ccJjynz7.o
 .text          0x0000000000000000        0x0 /tmp/ccOvwWJw.o
 .data          0x0000000000000000        0x0 /tmp/ccOvwWJw.o
 .bss           0x0000000000000000        0x0 /tmp/ccOvwWJw.o
 .data          0x0000000000000000        0x0 /usr/lib/gcc/arm-none-eabi/6.3.1/thumb/v7e-m/fpv4-sp/hard/libgcc.a(_aeabi_ldivmod.o)
 .bss           0x0000000000000000        0x0 /usr/lib/gcc/arm-none-eabi/6.3.1/thumb/v7e-m/fpv4-sp/hard/libgcc.a(_aeabi_ldivmod.o)
 .data          0x0000000000000000        0x0 /usr/lib/gcc/arm-none-eabi/6.3.1/thumb/v7e-m/fpv4-sp/hard/libgcc.a(_aeabi_uldivmod.o)
 .bss           0x0000000000000000        0x0 /usr/lib/gcc/arm-none-eabi/6.3.1/thumb/v7e-m/fpv4-sp/hard/libgcc.a(_aeabi_uldivmod.o)
 .data          0x0000000000000000        0x0 /usr/lib/gcc/arm-none-eabi/6.3.1/thumb/v7e-m/fpv4-sp/hard/libgcc.a(_udivmoddi4.o)
 .bss           0x0000000000000000        0x0 /usr/lib/gcc/arm-none-eabi/6.3.1/thumb/v7e-m/fpv4-sp/hard/libgcc.a(_udivmoddi4.o)
 .ARM.extab     0x0000000000000000        0x0 /usr/lib/gcc/arm-none-eabi/6.3.1/thumb/v7e-m/fpv4-sp/hard/libgcc.a(_udivmoddi4.o)
 .data          0x0000000000000000        0x0 /usr/lib/gcc/arm-none-eabi/6.3.1/thumb/v7e-m/fpv4-sp/hard/libgcc.a(_dvmd_tls.o)
 .bss           0x0000000000000000        0x0 /usr/lib/gcc/arm-none-eabi/6.3.1/thumb/v7e-m/fpv4-sp/hard/libgcc.a(_dvmd_tls.o)
 .data          0x0000000000000000        0x0 /usr/lib/gcc/arm-none-eabi/6.3.1/../../../arm-none-eabi/lib/thumb/v7e-m/fpv4-sp/hard/libc_nano.a(lib_a-atexit.o)
 .bss           0x0000000000000000        0x0 /usr/lib/gcc/arm-none-eabi/6.3.1/../../../arm-none-eabi/lib/thumb/v7e-m/fpv4-sp/hard/libc_nano.a(lib_a-atexit.o)
 .text          0x0000000000000000       0x10 /usr/lib/gcc/arm-none-eabi/6.3.1/../../../arm-none-eabi/lib/thumb/v7e-m/fpv4-sp/hard/libc_nano.a(lib_a-atoi.o)
 .data          0x0000000000000000        0x0 /usr/lib/gcc/arm-none-eabi/6.3.1/../../../arm-none-eabi/lib/thumb/v7e-m/fpv4-sp/hard/libc_nano.a(lib_a-atoi.o)
 .bss           0x0000000000000000        0x0 /usr/lib/gcc/arm-none-eabi/6.3.1/../../../arm-none-eabi/lib/thumb/v7e-m/fpv4-sp/hard/libc_nano.a(lib_a-atoi.o)
 .debug_info    0x0000000000000000      0x93c /usr/lib/gcc/arm-none-eabi/6.3.1/../../../arm-none-eabi/lib/thumb/v7e-m/fpv4-sp/hard/libc_nano.a(lib_a-atoi.o)
 .debug_abbrev  0x0000000000000000      0x1a6 /usr/lib/gcc/arm-none-eabi/6.3.1/../../../arm-none-eabi/lib/thumb/v7e-m/fpv4-sp/hard/libc_nano.a(lib_a-atoi.o)
 .debug_loc     0x0000000000000000       0x63 /usr/lib/gcc/arm-none-eabi/6.3.1/../../../arm-none-eabi/lib/thumb/v7e-m/fpv4-sp/hard/libc_nano.a(lib_a-atoi.o)
 .debug_aranges
                0x0000000000000000       0x20 /usr/lib/gcc/arm-none-eabi/6.3.1/../../../arm-none-eabi/lib/thumb/v7e-m/fpv4-sp/hard/libc_nano.a(lib_a-atoi.o)
 .debug_line    0x0000000000000000      0x14c /usr/lib/gcc/arm-none-eabi/6.3.1/../../../arm-none-eabi/lib/thumb/v7e-m/fpv4-sp/hard/libc_nano.a(lib_a-atoi.o)
 .debug_str     0x0000000000000000      0x61e /usr/lib/gcc/arm-none-eabi/6.3.1/../../../arm-none-eabi/lib/thumb/v7e-m/fpv4-sp/hard/libc_nano.a(lib_a-atoi.o)
 .comment       0x0000000000000000       0x32 /usr/lib/gcc/arm-none-eabi/6.3.1/../../../arm-none-eabi/lib/thumb/v7e-m/fpv4-sp/hard/libc_nano.a(lib_a-atoi.o)
 .debug_frame   0x0000000000000000       0x30 /usr/lib/gcc/arm-none-eabi/6.3.1/../../../arm-none-eabi/lib/thumb/v7e-m/fpv4-sp/hard/libc_nano.a(lib_a-atoi.o)
 .ARM.attributes
                0x0000000000000000       0x34 /usr/lib/gcc/arm-none-eabi/6.3.1/../../../arm-none-eabi/lib/thumb/v7e-m/fpv4-sp/hard/libc_nano.a(lib_a-atoi.o)
 .text          0x0000000000000000        0x0 /usr/lib/gcc/arm-none-eabi/6.3.1/../../../arm-none-eabi/lib/thumb/v7e-m/fpv4-sp/hard/libc_nano.a(lib_a-ctype_.o)
 .data          0x0000000000000000        0x4 /usr/lib/gcc/arm-none-eabi/6.3.1/../../../arm-none-eabi/lib/thumb/v7e-m/fpv4-sp/hard/libc_nano.a(lib_a-ctype_.o)
 .bss           0x0000000000000000        0x0 /usr/lib/gcc/arm-none-eabi/6.3.1/../../../arm-none-eabi/lib/thumb/v7e-m/fpv4-sp/hard/libc_nano.a(lib_a-ctype_.o)
 .rodata        0x0000000000000000      0x101 /usr/lib/gcc/arm-none-eabi/6.3.1/../../../arm-none-eabi/lib/thumb/v7e-m/fpv4-sp/hard/libc_nano.a(lib_a-ctype_.o)
 .debug_info    0x0000000000000000       0xc0 /usr/lib/gcc/arm-none-eabi/6.3.1/../../../arm-none-eabi/lib/thumb/v7e-m/fpv4-sp/hard/libc_nano.a(lib_a-ctype_.o)
 .debug_abbrev  0x0000000000000000       0x5e /usr/lib/gcc/arm-none-eabi/6.3.1/../../../arm-none-eabi/lib/thumb/v7e-m/fpv4-sp/hard/libc_nano.a(lib_a-ctype_.o)
 .debug_aranges
                0x0000000000000000       0x18 /usr/lib/gcc/arm-none-eabi/6.3.1/../../../arm-none-eabi/lib/thumb/v7e-m/fpv4-sp/hard/libc_nano.a(lib_a-ctype_.o)
 .debug_line    0x0000000000000000       0x67 /usr/lib/gcc/arm-none-eabi/6.3.1/../../../arm-none-eabi/lib/thumb/v7e-m/fpv4-sp/hard/libc_nano.a(lib_a-ctype_.o)
 .debug_str     0x0000000000000000      0x1fa /usr/lib/gcc/arm-none-eabi/6.3.1/../../../arm-none-eabi/lib/thumb/v7e-m/fpv4-sp/hard/libc_nano.a(lib_a-ctype_.o)
 .comment       0x0000000000000000       0x32 /usr/lib/gcc/arm-none-eabi/6.3.1/../../../arm-none-eabi/lib/thumb/v7e-m/fpv4-sp/hard/libc_nano.a(lib_a-ctype_.o)
 .ARM.attributes
                0x0000000000000000       0x34 /usr/lib/gcc/arm-none-eabi/6.3.1/../../../arm-none-eabi/lib/thumb/v7e-m/fpv4-sp/hard/libc_nano.a(lib_a-ctype_.o)
 .data          0x0000000000000000        0x0 /usr/lib/gcc/arm-none-eabi/6.3.1/../../../arm-none-eabi/lib/thumb/v7e-m/fpv4-sp/hard/libc_nano.a(lib_a-errno.o)
 .bss           0x0000000000000000        0x0 /usr/lib/gcc/arm-none-eabi/6.3.1/../../../arm-none-eabi/lib/thumb/v7e-m/fpv4-sp/hard/libc_nano.a(lib_a-errno.o)
 .data          0x0000000000000000        0x0 /usr/lib/gcc/arm-none-eabi/6.3.1/../../../arm-none-eabi/lib/thumb/v7e-m/fpv4-sp/hard/libc_nano.a(lib_a-exit.o)
 .bss           0x0000000000000000        0x0 /usr/lib/gcc/arm-none-eabi/6.3.1/../../../arm-none-eabi/lib/thumb/v7e-m/fpv4-sp/hard/libc_nano.a(lib_a-exit.o)
 .data          0x0000000000000000        0x0 /usr/lib/gcc/arm-none-eabi/6.3.1/../../../arm-none-eabi/lib/thumb/v7e-m/fpv4-sp/hard/libc_nano.a(lib_a-fini.o)
 .bss           0x0000000000000000        0x0 /usr/lib/gcc/arm-none-eabi/6.3.1/../../../arm-none-eabi/lib/thumb/v7e-m/fpv4-sp/hard/libc_nano.a(lib_a-fini.o)
 .text          0x0000000000000000        0x0 /usr/lib/gcc/arm-none-eabi/6.3.1/../../../arm-none-eabi/lib/thumb/v7e-m/fpv4-sp/hard/libc_nano.a(lib_a-impure.o)
 .bss           0x0000000000000000        0x0 /usr/lib/gcc/arm-none-eabi/6.3.1/../../../arm-none-eabi/lib/thumb/v7e-m/fpv4-sp/hard/libc_nano.a(lib_a-impure.o)
 .data          0x0000000000000000        0x0 /usr/lib/gcc/arm-none-eabi/6.3.1/../../../arm-none-eabi/lib/thumb/v7e-m/fpv4-sp/hard/libc_nano.a(lib_a-init.o)
 .bss           0x0000000000000000        0x0 /usr/lib/gcc/arm-none-eabi/6.3.1/../../../arm-none-eabi/lib/thumb/v7e-m/fpv4-sp/hard/libc_nano.a(lib_a-init.o)
 .data          0x0000000000000000        0x0 /usr/lib/gcc/arm-none-eabi/6.3.1/../../../arm-none-eabi/lib/thumb/v7e-m/fpv4-sp/hard/libc_nano.a(lib_a-malloc.o)
 .bss           0x0000000000000000        0x0 /usr/lib/gcc/arm-none-eabi/6.3.1/../../../arm-none-eabi/lib/thumb/v7e-m/fpv4-sp/hard/libc_nano.a(lib_a-malloc.o)
 .data          0x0000000000000000        0x0 /usr/lib/gcc/arm-none-eabi/6.3.1/../../../arm-none-eabi/lib/thumb/v7e-m/fpv4-sp/hard/libc_nano.a(lib_a-memcmp.o)
 .bss           0x0000000000000000        0x0 /usr/lib/gcc/arm-none-eabi/6.3.1/../../../arm-none-eabi/lib/thumb/v7e-m/fpv4-sp/hard/libc_nano.a(lib_a-memcmp.o)
 .data          0x0000000000000000        0x0 /usr/lib/gcc/arm-none-eabi/6.3.1/../../../arm-none-eabi/lib/thumb/v7e-m/fpv4-sp/hard/libc_nano.a(lib_a-memcpy.o)
 .bss           0x0000000000000000        0x0 /usr/lib/gcc/arm-none-eabi/6.3.1/../../../arm-none-eabi/lib/thumb/v7e-m/fpv4-sp/hard/libc_nano.a(lib_a-memcpy.o)
 .text          0x0000000000000000       0xc8 /usr/lib/gcc/arm-none-eabi/6.3.1/../../../arm-none-eabi/lib/thumb/v7e-m/fpv4-sp/hard/libc_nano.a(lib_a-memmove.o)
 .data          0x0000000000000000        0x0 /usr/lib/gcc/arm-none-eabi/6.3.1/../../../arm-none-eabi/lib/thumb/v7e-m/fpv4-sp/hard/libc_nano.a(lib_a-memmove.o)
 .bss           0x0000000000000000        0x0 /usr/lib/gcc/arm-none-eabi/6.3.1/../../../arm-none-eabi/lib/thumb/v7e-m/fpv4-sp/hard/libc_nano.a(lib_a-memmove.o)
 .debug_info    0x0000000000000000      0x925 /usr/lib/gcc/arm-none-eabi/6.3.1/../../../arm-none-eabi/lib/thumb/v7e-m/fpv4-sp/hard/libc_nano.a(lib_a-memmove.o)
 .debug_abbrev  0x0000000000000000      0x19c /usr/lib/gcc/arm-none-eabi/6.3.1/../../../arm-none-eabi/lib/thumb/v7e-m/fpv4-sp/hard/libc_nano.a(lib_a-memmove.o)
 .debug_loc     0x0000000000000000      0x269 /usr/lib/gcc/arm-none-eabi/6.3.1/../../../arm-none-eabi/lib/thumb/v7e-m/fpv4-sp/hard/libc_nano.a(lib_a-memmove.o)
 .debug_aranges
                0x0000000000000000       0x20 /usr/lib/gcc/arm-none-eabi/6.3.1/../../../arm-none-eabi/lib/thumb/v7e-m/fpv4-sp/hard/libc_nano.a(lib_a-memmove.o)
 .debug_line    0x0000000000000000      0x182 /usr/lib/gcc/arm-none-eabi/6.3.1/../../../arm-none-eabi/lib/thumb/v7e-m/fpv4-sp/hard/libc_nano.a(lib_a-memmove.o)
 .debug_str     0x0000000000000000      0x639 /usr/lib/gcc/arm-none-eabi/6.3.1/../../../arm-none-eabi/lib/thumb/v7e-m/fpv4-sp/hard/libc_nano.a(lib_a-memmove.o)
 .comment       0x0000000000000000       0x32 /usr/lib/gcc/arm-none-eabi/6.3.1/../../../arm-none-eabi/lib/thumb/v7e-m/fpv4-sp/hard/libc_nano.a(lib_a-memmove.o)
 .debug_frame   0x0000000000000000       0x30 /usr/lib/gcc/arm-none-eabi/6.3.1/../../../arm-none-eabi/lib/thumb/v7e-m/fpv4-sp/hard/libc_nano.a(lib_a-memmove.o)
 .ARM.attributes
                0x0000000000000000       0x34 /usr/lib/gcc/arm-none-eabi/6.3.1/../../../arm-none-eabi/lib/thumb/v7e-m/fpv4-sp/hard/libc_nano.a(lib_a-memmove.o)
 .data          0x0000000000000000        0x0 /usr/lib/gcc/arm-none-eabi/6.3.1/../../../arm-none-eabi/lib/thumb/v7e-m/fpv4-sp/hard/libc_nano.a(lib_a-memset.o)
 .bss           0x0000000000000000        0x0 /usr/lib/gcc/arm-none-eabi/6.3.1/../../../arm-none-eabi/lib/thumb/v7e-m/fpv4-sp/hard/libc_nano.a(lib_a-memset.o)
 .data          0x0000000000000000        0x0 /usr/lib/gcc/arm-none-eabi/6.3.1/../../../arm-none-eabi/lib/thumb/v7e-m/fpv4-sp/hard/libc_nano.a(lib_a-nano-freer.o)
 .bss           0x0000000000000000        0x0 /usr/lib/gcc/arm-none-eabi/6.3.1/../../../arm-none-eabi/lib/thumb/v7e-m/fpv4-sp/hard/libc_nano.a(lib_a-nano-freer.o)
 .data          0x0000000000000000        0x0 /usr/lib/gcc/arm-none-eabi/6.3.1/../../../arm-none-eabi/lib/thumb/v7e-m/fpv4-sp/hard/libc_nano.a(lib_a-nano-mallocr.o)
 .data          0x0000000000000000        0x0 /usr/lib/gcc/arm-none-eabi/6.3.1/../../../arm-none-eabi/lib/thumb/v7e-m/fpv4-sp/hard/libc_nano.a(lib_a-sbrkr.o)
 .bss           0x0000000000000000        0x0 /usr/lib/gcc/arm-none-eabi/6.3.1/../../../arm-none-eabi/lib/thumb/v7e-m/fpv4-sp/hard/libc_nano.a(lib_a-sbrkr.o)
 .text          0x0000000000000000       0x90 /usr/lib/gcc/arm-none-eabi/6.3.1/../../../arm-none-eabi/lib/thumb/v7e-m/fpv4-sp/hard/libc_nano.a(lib_a-sprintf.o)
 .data          0x0000000000000000        0x0 /usr/lib/gcc/arm-none-eabi/6.3.1/../../../arm-none-eabi/lib/thumb/v7e-m/fpv4-sp/hard/libc_nano.a(lib_a-sprintf.o)
 .bss           0x0000000000000000        0x0 /usr/lib/gcc/arm-none-eabi/6.3.1/../../../arm-none-eabi/lib/thumb/v7e-m/fpv4-sp/hard/libc_nano.a(lib_a-sprintf.o)
 .debug_info    0x0000000000000000      0xbcb /usr/lib/gcc/arm-none-eabi/6.3.1/../../../arm-none-eabi/lib/thumb/v7e-m/fpv4-sp/hard/libc_nano.a(lib_a-sprintf.o)
 .debug_abbrev  0x0000000000000000      0x217 /usr/lib/gcc/arm-none-eabi/6.3.1/../../../arm-none-eabi/lib/thumb/v7e-m/fpv4-sp/hard/libc_nano.a(lib_a-sprintf.o)
 .debug_loc     0x0000000000000000       0x7a /usr/lib/gcc/arm-none-eabi/6.3.1/../../../arm-none-eabi/lib/thumb/v7e-m/fpv4-sp/hard/libc_nano.a(lib_a-sprintf.o)
 .debug_aranges
                0x0000000000000000       0x20 /usr/lib/gcc/arm-none-eabi/6.3.1/../../../arm-none-eabi/lib/thumb/v7e-m/fpv4-sp/hard/libc_nano.a(lib_a-sprintf.o)
 .debug_line    0x0000000000000000      0x1bc /usr/lib/gcc/arm-none-eabi/6.3.1/../../../arm-none-eabi/lib/thumb/v7e-m/fpv4-sp/hard/libc_nano.a(lib_a-sprintf.o)
 .debug_str     0x0000000000000000      0x77d /usr/lib/gcc/arm-none-eabi/6.3.1/../../../arm-none-eabi/lib/thumb/v7e-m/fpv4-sp/hard/libc_nano.a(lib_a-sprintf.o)
 .comment       0x0000000000000000       0x32 /usr/lib/gcc/arm-none-eabi/6.3.1/../../../arm-none-eabi/lib/thumb/v7e-m/fpv4-sp/hard/libc_nano.a(lib_a-sprintf.o)
 .debug_frame   0x0000000000000000       0x84 /usr/lib/gcc/arm-none-eabi/6.3.1/../../../arm-none-eabi/lib/thumb/v7e-m/fpv4-sp/hard/libc_nano.a(lib_a-sprintf.o)
 .ARM.attributes
                0x0000000000000000       0x34 /usr/lib/gcc/arm-none-eabi/6.3.1/../../../arm-none-eabi/lib/thumb/v7e-m/fpv4-sp/hard/libc_nano.a(lib_a-sprintf.o)
 .text          0x0000000000000000       0xbc /usr/lib/gcc/arm-none-eabi/6.3.1/../../../arm-none-eabi/lib/thumb/v7e-m/fpv4-sp/hard/libc_nano.a(lib_a-strcpy.o)
 .data          0x0000000000000000        0x0 /usr/lib/gcc/arm-none-eabi/6.3.1/../../../arm-none-eabi/lib/thumb/v7e-m/fpv4-sp/hard/libc_nano.a(lib_a-strcpy.o)
 .bss           0x0000000000000000        0x0 /usr/lib/gcc/arm-none-eabi/6.3.1/../../../arm-none-eabi/lib/thumb/v7e-m/fpv4-sp/hard/libc_nano.a(lib_a-strcpy.o)
 .debug_info    0x0000000000000000      0x8b3 /usr/lib/gcc/arm-none-eabi/6.3.1/../../../arm-none-eabi/lib/thumb/v7e-m/fpv4-sp/hard/libc_nano.a(lib_a-strcpy.o)
 .debug_abbrev  0x0000000000000000      0x177 /usr/lib/gcc/arm-none-eabi/6.3.1/../../../arm-none-eabi/lib/thumb/v7e-m/fpv4-sp/hard/libc_nano.a(lib_a-strcpy.o)
 .debug_loc     0x0000000000000000       0x21 /usr/lib/gcc/arm-none-eabi/6.3.1/../../../arm-none-eabi/lib/thumb/v7e-m/fpv4-sp/hard/libc_nano.a(lib_a-strcpy.o)
 .debug_aranges
                0x0000000000000000       0x20 /usr/lib/gcc/arm-none-eabi/6.3.1/../../../arm-none-eabi/lib/thumb/v7e-m/fpv4-sp/hard/libc_nano.a(lib_a-strcpy.o)
 .debug_ranges  0x0000000000000000       0x10 /usr/lib/gcc/arm-none-eabi/6.3.1/../../../arm-none-eabi/lib/thumb/v7e-m/fpv4-sp/hard/libc_nano.a(lib_a-strcpy.o)
 .debug_line    0x0000000000000000      0x153 /usr/lib/gcc/arm-none-eabi/6.3.1/../../../arm-none-eabi/lib/thumb/v7e-m/fpv4-sp/hard/libc_nano.a(lib_a-strcpy.o)
 .debug_str     0x0000000000000000      0x60c /usr/lib/gcc/arm-none-eabi/6.3.1/../../../arm-none-eabi/lib/thumb/v7e-m/fpv4-sp/hard/libc_nano.a(lib_a-strcpy.o)
 .comment       0x0000000000000000       0x32 /usr/lib/gcc/arm-none-eabi/6.3.1/../../../arm-none-eabi/lib/thumb/v7e-m/fpv4-sp/hard/libc_nano.a(lib_a-strcpy.o)
 .debug_frame   0x0000000000000000       0x20 /usr/lib/gcc/arm-none-eabi/6.3.1/../../../arm-none-eabi/lib/thumb/v7e-m/fpv4-sp/hard/libc_nano.a(lib_a-strcpy.o)
 .ARM.attributes
                0x0000000000000000       0x34 /usr/lib/gcc/arm-none-eabi/6.3.1/../../../arm-none-eabi/lib/thumb/v7e-m/fpv4-sp/hard/libc_nano.a(lib_a-strcpy.o)
 .data          0x0000000000000000        0x0 /usr/lib/gcc/arm-none-eabi/6.3.1/../../../arm-none-eabi/lib/thumb/v7e-m/fpv4-sp/hard/libc_nano.a(lib_a-strlen.o)
 .bss           0x0000000000000000        0x0 /usr/lib/gcc/arm-none-eabi/6.3.1/../../../arm-none-eabi/lib/thumb/v7e-m/fpv4-sp/hard/libc_nano.a(lib_a-strlen.o)
 .text          0x0000000000000000       0xa4 /usr/lib/gcc/arm-none-eabi/6.3.1/../../../arm-none-eabi/lib/thumb/v7e-m/fpv4-sp/hard/libc_nano.a(lib_a-strncmp.o)
 .data          0x0000000000000000        0x0 /usr/lib/gcc/arm-none-eabi/6.3.1/../../../arm-none-eabi/lib/thumb/v7e-m/fpv4-sp/hard/libc_nano.a(lib_a-strncmp.o)
 .bss           0x0000000000000000        0x0 /usr/lib/gcc/arm-none-eabi/6.3.1/../../../arm-none-eabi/lib/thumb/v7e-m/fpv4-sp/hard/libc_nano.a(lib_a-strncmp.o)
 .debug_info    0x0000000000000000      0x8f1 /usr/lib/gcc/arm-none-eabi/6.3.1/../../../arm-none-eabi/lib/thumb/v7e-m/fpv4-sp/hard/libc_nano.a(lib_a-strncmp.o)
 .debug_abbrev  0x0000000000000000      0x179 /usr/lib/gcc/arm-none-eabi/6.3.1/../../../arm-none-eabi/lib/thumb/v7e-m/fpv4-sp/hard/libc_nano.a(lib_a-strncmp.o)
 .debug_loc     0x0000000000000000      0x1ea /usr/lib/gcc/arm-none-eabi/6.3.1/../../../arm-none-eabi/lib/thumb/v7e-m/fpv4-sp/hard/libc_nano.a(lib_a-strncmp.o)
 .debug_aranges
                0x0000000000000000       0x20 /usr/lib/gcc/arm-none-eabi/6.3.1/../../../arm-none-eabi/lib/thumb/v7e-m/fpv4-sp/hard/libc_nano.a(lib_a-strncmp.o)
 .debug_line    0x0000000000000000      0x1ac /usr/lib/gcc/arm-none-eabi/6.3.1/../../../arm-none-eabi/lib/thumb/v7e-m/fpv4-sp/hard/libc_nano.a(lib_a-strncmp.o)
 .debug_str     0x0000000000000000      0x608 /usr/lib/gcc/arm-none-eabi/6.3.1/../../../arm-none-eabi/lib/thumb/v7e-m/fpv4-sp/hard/libc_nano.a(lib_a-strncmp.o)
 .comment       0x0000000000000000       0x32 /usr/lib/gcc/arm-none-eabi/6.3.1/../../../arm-none-eabi/lib/thumb/v7e-m/fpv4-sp/hard/libc_nano.a(lib_a-strncmp.o)
 .debug_frame   0x0000000000000000       0x54 /usr/lib/gcc/arm-none-eabi/6.3.1/../../../arm-none-eabi/lib/thumb/v7e-m/fpv4-sp/hard/libc_nano.a(lib_a-strncmp.o)
 .ARM.attributes
                0x0000000000000000       0x34 /usr/lib/gcc/arm-none-eabi/6.3.1/../../../arm-none-eabi/lib/thumb/v7e-m/fpv4-sp/hard/libc_nano.a(lib_a-strncmp.o)
 .text          0x0000000000000000      0x128 /usr/lib/gcc/arm-none-eabi/6.3.1/../../../arm-none-eabi/lib/thumb/v7e-m/fpv4-sp/hard/libc_nano.a(lib_a-strtol.o)
 .data          0x0000000000000000        0x0 /usr/lib/gcc/arm-none-eabi/6.3.1/../../../arm-none-eabi/lib/thumb/v7e-m/fpv4-sp/hard/libc_nano.a(lib_a-strtol.o)
 .bss           0x0000000000000000        0x0 /usr/lib/gcc/arm-none-eabi/6.3.1/../../../arm-none-eabi/lib/thumb/v7e-m/fpv4-sp/hard/libc_nano.a(lib_a-strtol.o)
 .debug_info    0x0000000000000000      0xa14 /usr/lib/gcc/arm-none-eabi/6.3.1/../../../arm-none-eabi/lib/thumb/v7e-m/fpv4-sp/hard/libc_nano.a(lib_a-strtol.o)
 .debug_abbrev  0x0000000000000000      0x1dd /usr/lib/gcc/arm-none-eabi/6.3.1/../../../arm-none-eabi/lib/thumb/v7e-m/fpv4-sp/hard/libc_nano.a(lib_a-strtol.o)
 .debug_loc     0x0000000000000000      0x30f /usr/lib/gcc/arm-none-eabi/6.3.1/../../../arm-none-eabi/lib/thumb/v7e-m/fpv4-sp/hard/libc_nano.a(lib_a-strtol.o)
 .debug_aranges
                0x0000000000000000       0x20 /usr/lib/gcc/arm-none-eabi/6.3.1/../../../arm-none-eabi/lib/thumb/v7e-m/fpv4-sp/hard/libc_nano.a(lib_a-strtol.o)
 .debug_line    0x0000000000000000      0x1e2 /usr/lib/gcc/arm-none-eabi/6.3.1/../../../arm-none-eabi/lib/thumb/v7e-m/fpv4-sp/hard/libc_nano.a(lib_a-strtol.o)
 .debug_str     0x0000000000000000      0x664 /usr/lib/gcc/arm-none-eabi/6.3.1/../../../arm-none-eabi/lib/thumb/v7e-m/fpv4-sp/hard/libc_nano.a(lib_a-strtol.o)
 .comment       0x0000000000000000       0x32 /usr/lib/gcc/arm-none-eabi/6.3.1/../../../arm-none-eabi/lib/thumb/v7e-m/fpv4-sp/hard/libc_nano.a(lib_a-strtol.o)
 .debug_frame   0x0000000000000000       0x5c /usr/lib/gcc/arm-none-eabi/6.3.1/../../../arm-none-eabi/lib/thumb/v7e-m/fpv4-sp/hard/libc_nano.a(lib_a-strtol.o)
 .ARM.attributes
                0x0000000000000000       0x34 /usr/lib/gcc/arm-none-eabi/6.3.1/../../../arm-none-eabi/lib/thumb/v7e-m/fpv4-sp/hard/libc_nano.a(lib_a-strtol.o)
 .data          0x0000000000000000        0x4 /usr/lib/gcc/arm-none-eabi/6.3.1/../../../arm-none-eabi/lib/thumb/v7e-m/fpv4-sp/hard/libc_nano.a(lib_a-__atexit.o)
 .data          0x0000000000000000        0x0 /usr/lib/gcc/arm-none-eabi/6.3.1/../../../arm-none-eabi/lib/thumb/v7e-m/fpv4-sp/hard/libc_nano.a(lib_a-__call_atexit.o)
 .text          0x0000000000000000      0x3ec /usr/lib/gcc/arm-none-eabi/6.3.1/../../../arm-none-eabi/lib/thumb/v7e-m/fpv4-sp/hard/libc_nano.a(lib_a-nano-svfprintf.o)
 .data          0x0000000000000000        0x0 /usr/lib/gcc/arm-none-eabi/6.3.1/../../../arm-none-eabi/lib/thumb/v7e-m/fpv4-sp/hard/libc_nano.a(lib_a-nano-svfprintf.o)
 .bss           0x0000000000000000        0x0 /usr/lib/gcc/arm-none-eabi/6.3.1/../../../arm-none-eabi/lib/thumb/v7e-m/fpv4-sp/hard/libc_nano.a(lib_a-nano-svfprintf.o)
 .rodata.str1.4
                0x0000000000000000       0x13 /usr/lib/gcc/arm-none-eabi/6.3.1/../../../arm-none-eabi/lib/thumb/v7e-m/fpv4-sp/hard/libc_nano.a(lib_a-nano-svfprintf.o)
 .debug_info    0x0000000000000000     0x11b2 /usr/lib/gcc/arm-none-eabi/6.3.1/../../../arm-none-eabi/lib/thumb/v7e-m/fpv4-sp/hard/libc_nano.a(lib_a-nano-svfprintf.o)
 .debug_abbrev  0x0000000000000000      0x2d7 /usr/lib/gcc/arm-none-eabi/6.3.1/../../../arm-none-eabi/lib/thumb/v7e-m/fpv4-sp/hard/libc_nano.a(lib_a-nano-svfprintf.o)
 .debug_loc     0x0000000000000000      0x6e1 /usr/lib/gcc/arm-none-eabi/6.3.1/../../../arm-none-eabi/lib/thumb/v7e-m/fpv4-sp/hard/libc_nano.a(lib_a-nano-svfprintf.o)
 .debug_aranges
                0x0000000000000000       0x20 /usr/lib/gcc/arm-none-eabi/6.3.1/../../../arm-none-eabi/lib/thumb/v7e-m/fpv4-sp/hard/libc_nano.a(lib_a-nano-svfprintf.o)
 .debug_ranges  0x0000000000000000       0x38 /usr/lib/gcc/arm-none-eabi/6.3.1/../../../arm-none-eabi/lib/thumb/v7e-m/fpv4-sp/hard/libc_nano.a(lib_a-nano-svfprintf.o)
 .debug_line    0x0000000000000000      0x3a3 /usr/lib/gcc/arm-none-eabi/6.3.1/../../../arm-none-eabi/lib/thumb/v7e-m/fpv4-sp/hard/libc_nano.a(lib_a-nano-svfprintf.o)
 .debug_str     0x0000000000000000      0x971 /usr/lib/gcc/arm-none-eabi/6.3.1/../../../arm-none-eabi/lib/thumb/v7e-m/fpv4-sp/hard/libc_nano.a(lib_a-nano-svfprintf.o)
 .comment       0x0000000000000000       0x32 /usr/lib/gcc/arm-none-eabi/6.3.1/../../../arm-none-eabi/lib/thumb/v7e-m/fpv4-sp/hard/libc_nano.a(lib_a-nano-svfprintf.o)
 .debug_frame   0x0000000000000000       0x98 /usr/lib/gcc/arm-none-eabi/6.3.1/../../../arm-none-eabi/lib/thumb/v7e-m/fpv4-sp/hard/libc_nano.a(lib_a-nano-svfprintf.o)
 .ARM.attributes
                0x0000000000000000       0x34 /usr/lib/gcc/arm-none-eabi/6.3.1/../../../arm-none-eabi/lib/thumb/v7e-m/fpv4-sp/hard/libc_nano.a(lib_a-nano-svfprintf.o)
 .text          0x0000000000000000      0x3d4 /usr/lib/gcc/arm-none-eabi/6.3.1/../../../arm-none-eabi/lib/thumb/v7e-m/fpv4-sp/hard/libc_nano.a(lib_a-nano-vfprintf_i.o)
 .data          0x0000000000000000        0x0 /usr/lib/gcc/arm-none-eabi/6.3.1/../../../arm-none-eabi/lib/thumb/v7e-m/fpv4-sp/hard/libc_nano.a(lib_a-nano-vfprintf_i.o)
 .bss           0x0000000000000000        0x0 /usr/lib/gcc/arm-none-eabi/6.3.1/../../../arm-none-eabi/lib/thumb/v7e-m/fpv4-sp/hard/libc_nano.a(lib_a-nano-vfprintf_i.o)
 .rodata.str1.4
                0x0000000000000000       0x25 /usr/lib/gcc/arm-none-eabi/6.3.1/../../../arm-none-eabi/lib/thumb/v7e-m/fpv4-sp/hard/libc_nano.a(lib_a-nano-vfprintf_i.o)
 .debug_info    0x0000000000000000      0xfb4 /usr/lib/gcc/arm-none-eabi/6.3.1/../../../arm-none-eabi/lib/thumb/v7e-m/fpv4-sp/hard/libc_nano.a(lib_a-nano-vfprintf_i.o)
 .debug_abbrev  0x0000000000000000      0x27c /usr/lib/gcc/arm-none-eabi/6.3.1/../../../arm-none-eabi/lib/thumb/v7e-m/fpv4-sp/hard/libc_nano.a(lib_a-nano-vfprintf_i.o)
 .debug_loc     0x0000000000000000      0x68a /usr/lib/gcc/arm-none-eabi/6.3.1/../../../arm-none-eabi/lib/thumb/v7e-m/fpv4-sp/hard/libc_nano.a(lib_a-nano-vfprintf_i.o)
 .debug_aranges
                0x0000000000000000       0x20 /usr/lib/gcc/arm-none-eabi/6.3.1/../../../arm-none-eabi/lib/thumb/v7e-m/fpv4-sp/hard/libc_nano.a(lib_a-nano-vfprintf_i.o)
 .debug_ranges  0x0000000000000000       0xb0 /usr/lib/gcc/arm-none-eabi/6.3.1/../../../arm-none-eabi/lib/thumb/v7e-m/fpv4-sp/hard/libc_nano.a(lib_a-nano-vfprintf_i.o)
 .debug_line    0x0000000000000000      0x3a1 /usr/lib/gcc/arm-none-eabi/6.3.1/../../../arm-none-eabi/lib/thumb/v7e-m/fpv4-sp/hard/libc_nano.a(lib_a-nano-vfprintf_i.o)
 .debug_str     0x0000000000000000      0x910 /usr/lib/gcc/arm-none-eabi/6.3.1/../../../arm-none-eabi/lib/thumb/v7e-m/fpv4-sp/hard/libc_nano.a(lib_a-nano-vfprintf_i.o)
 .comment       0x0000000000000000       0x32 /usr/lib/gcc/arm-none-eabi/6.3.1/../../../arm-none-eabi/lib/thumb/v7e-m/fpv4-sp/hard/libc_nano.a(lib_a-nano-vfprintf_i.o)
 .debug_frame   0x0000000000000000       0x68 /usr/lib/gcc/arm-none-eabi/6.3.1/../../../arm-none-eabi/lib/thumb/v7e-m/fpv4-sp/hard/libc_nano.a(lib_a-nano-vfprintf_i.o)
 .ARM.attributes
                0x0000000000000000       0x34 /usr/lib/gcc/arm-none-eabi/6.3.1/../../../arm-none-eabi/lib/thumb/v7e-m/fpv4-sp/hard/libc_nano.a(lib_a-nano-vfprintf_i.o)
 .text          0x0000000000000000       0xa0 /usr/lib/gcc/arm-none-eabi/6.3.1/../../../arm-none-eabi/lib/thumb/v7e-m/fpv4-sp/hard/libc_nano.a(lib_a-memchr.o)
 .data          0x0000000000000000        0x0 /usr/lib/gcc/arm-none-eabi/6.3.1/../../../arm-none-eabi/lib/thumb/v7e-m/fpv4-sp/hard/libc_nano.a(lib_a-memchr.o)
 .bss           0x0000000000000000        0x0 /usr/lib/gcc/arm-none-eabi/6.3.1/../../../arm-none-eabi/lib/thumb/v7e-m/fpv4-sp/hard/libc_nano.a(lib_a-memchr.o)
 .debug_line    0x0000000000000000       0xa7 /usr/lib/gcc/arm-none-eabi/6.3.1/../../../arm-none-eabi/lib/thumb/v7e-m/fpv4-sp/hard/libc_nano.a(lib_a-memchr.o)
 .debug_info    0x0000000000000000       0xda /usr/lib/gcc/arm-none-eabi/6.3.1/../../../arm-none-eabi/lib/thumb/v7e-m/fpv4-sp/hard/libc_nano.a(lib_a-memchr.o)
 .debug_abbrev  0x0000000000000000       0x14 /usr/lib/gcc/arm-none-eabi/6.3.1/../../../arm-none-eabi/lib/thumb/v7e-m/fpv4-sp/hard/libc_nano.a(lib_a-memchr.o)
 .debug_aranges
                0x0000000000000000       0x20 /usr/lib/gcc/arm-none-eabi/6.3.1/../../../arm-none-eabi/lib/thumb/v7e-m/fpv4-sp/hard/libc_nano.a(lib_a-memchr.o)
 .ARM.attributes
                0x0000000000000000       0x20 /usr/lib/gcc/arm-none-eabi/6.3.1/../../../arm-none-eabi/lib/thumb/v7e-m/fpv4-sp/hard/libc_nano.a(lib_a-memchr.o)
 .text          0x0000000000000000       0x50 /usr/lib/gcc/arm-none-eabi/6.3.1/../../../arm-none-eabi/lib/thumb/v7e-m/fpv4-sp/hard/libc_nano.a(lib_a-nano-reallocr.o)
 .data          0x0000000000000000        0x0 /usr/lib/gcc/arm-none-eabi/6.3.1/../../../arm-none-eabi/lib/thumb/v7e-m/fpv4-sp/hard/libc_nano.a(lib_a-nano-reallocr.o)
 .bss           0x0000000000000000        0x0 /usr/lib/gcc/arm-none-eabi/6.3.1/../../../arm-none-eabi/lib/thumb/v7e-m/fpv4-sp/hard/libc_nano.a(lib_a-nano-reallocr.o)
 .debug_info    0x0000000000000000      0xac0 /usr/lib/gcc/arm-none-eabi/6.3.1/../../../arm-none-eabi/lib/thumb/v7e-m/fpv4-sp/hard/libc_nano.a(lib_a-nano-reallocr.o)
 .debug_abbrev  0x0000000000000000      0x1ee /usr/lib/gcc/arm-none-eabi/6.3.1/../../../arm-none-eabi/lib/thumb/v7e-m/fpv4-sp/hard/libc_nano.a(lib_a-nano-reallocr.o)
 .debug_loc     0x0000000000000000      0x185 /usr/lib/gcc/arm-none-eabi/6.3.1/../../../arm-none-eabi/lib/thumb/v7e-m/fpv4-sp/hard/libc_nano.a(lib_a-nano-reallocr.o)
 .debug_aranges
                0x0000000000000000       0x20 /usr/lib/gcc/arm-none-eabi/6.3.1/../../../arm-none-eabi/lib/thumb/v7e-m/fpv4-sp/hard/libc_nano.a(lib_a-nano-reallocr.o)
 .debug_line    0x0000000000000000      0x181 /usr/lib/gcc/arm-none-eabi/6.3.1/../../../arm-none-eabi/lib/thumb/v7e-m/fpv4-sp/hard/libc_nano.a(lib_a-nano-reallocr.o)
 .debug_str     0x0000000000000000      0x72f /usr/lib/gcc/arm-none-eabi/6.3.1/../../../arm-none-eabi/lib/thumb/v7e-m/fpv4-sp/hard/libc_nano.a(lib_a-nano-reallocr.o)
 .comment       0x0000000000000000       0x32 /usr/lib/gcc/arm-none-eabi/6.3.1/../../../arm-none-eabi/lib/thumb/v7e-m/fpv4-sp/hard/libc_nano.a(lib_a-nano-reallocr.o)
 .debug_frame   0x0000000000000000       0x38 /usr/lib/gcc/arm-none-eabi/6.3.1/../../../arm-none-eabi/lib/thumb/v7e-m/fpv4-sp/hard/libc_nano.a(lib_a-nano-reallocr.o)
 .ARM.attributes
                0x0000000000000000       0x34 /usr/lib/gcc/arm-none-eabi/6.3.1/../../../arm-none-eabi/lib/thumb/v7e-m/fpv4-sp/hard/libc_nano.a(lib_a-nano-reallocr.o)
 .text          0x0000000000000000       0x14 /usr/lib/gcc/arm-none-eabi/6.3.1/../../../arm-none-eabi/lib/thumb/v7e-m/fpv4-sp/hard/libc_nano.a(lib_a-nano-msizer.o)
 .data          0x0000000000000000        0x0 /usr/lib/gcc/arm-none-eabi/6.3.1/../../../arm-none-eabi/lib/thumb/v7e-m/fpv4-sp/hard/libc_nano.a(lib_a-nano-msizer.o)
 .bss           0x0000000000000000        0x0 /usr/lib/gcc/arm-none-eabi/6.3.1/../../../arm-none-eabi/lib/thumb/v7e-m/fpv4-sp/hard/libc_nano.a(lib_a-nano-msizer.o)
 .debug_info    0x0000000000000000      0x9f7 /usr/lib/gcc/arm-none-eabi/6.3.1/../../../arm-none-eabi/lib/thumb/v7e-m/fpv4-sp/hard/libc_nano.a(lib_a-nano-msizer.o)
 .debug_abbrev  0x0000000000000000      0x1ab /usr/lib/gcc/arm-none-eabi/6.3.1/../../../arm-none-eabi/lib/thumb/v7e-m/fpv4-sp/hard/libc_nano.a(lib_a-nano-msizer.o)
 .debug_loc     0x0000000000000000       0x78 /usr/lib/gcc/arm-none-eabi/6.3.1/../../../arm-none-eabi/lib/thumb/v7e-m/fpv4-sp/hard/libc_nano.a(lib_a-nano-msizer.o)
 .debug_aranges
                0x0000000000000000       0x20 /usr/lib/gcc/arm-none-eabi/6.3.1/../../../arm-none-eabi/lib/thumb/v7e-m/fpv4-sp/hard/libc_nano.a(lib_a-nano-msizer.o)
 .debug_line    0x0000000000000000      0x115 /usr/lib/gcc/arm-none-eabi/6.3.1/../../../arm-none-eabi/lib/thumb/v7e-m/fpv4-sp/hard/libc_nano.a(lib_a-nano-msizer.o)
 .debug_str     0x0000000000000000      0x70d /usr/lib/gcc/arm-none-eabi/6.3.1/../../../arm-none-eabi/lib/thumb/v7e-m/fpv4-sp/hard/libc_nano.a(lib_a-nano-msizer.o)
 .comment       0x0000000000000000       0x32 /usr/lib/gcc/arm-none-eabi/6.3.1/../../../arm-none-eabi/lib/thumb/v7e-m/fpv4-sp/hard/libc_nano.a(lib_a-nano-msizer.o)
 .debug_frame   0x0000000000000000       0x20 /usr/lib/gcc/arm-none-eabi/6.3.1/../../../arm-none-eabi/lib/thumb/v7e-m/fpv4-sp/hard/libc_nano.a(lib_a-nano-msizer.o)
 .ARM.attributes
                0x0000000000000000       0x34 /usr/lib/gcc/arm-none-eabi/6.3.1/../../../arm-none-eabi/lib/thumb/v7e-m/fpv4-sp/hard/libc_nano.a(lib_a-nano-msizer.o)
 .data          0x0000000000000000        0x0 /usr/lib/gcc/arm-none-eabi/6.3.1/../../../arm-none-eabi/lib/thumb/v7e-m/fpv4-sp/hard/libnosys.a(_exit.o)
 .bss           0x0000000000000000        0x0 /usr/lib/gcc/arm-none-eabi/6.3.1/../../../arm-none-eabi/lib/thumb/v7e-m/fpv4-sp/hard/libnosys.a(_exit.o)
 .text          0x0000000000000000        0x0 /usr/lib/gcc/arm-none-eabi/6.3.1/thumb/v7e-m/fpv4-sp/hard/crtend.o
 .data          0x0000000000000000        0x0 /usr/lib/gcc/arm-none-eabi/6.3.1/thumb/v7e-m/fpv4-sp/hard/crtend.o
 .bss           0x0000000000000000        0x0 /usr/lib/gcc/arm-none-eabi/6.3.1/thumb/v7e-m/fpv4-sp/hard/crtend.o
 .eh_frame      0x0000000000000000        0x4 /usr/lib/gcc/arm-none-eabi/6.3.1/thumb/v7e-m/fpv4-sp/hard/crtend.o
 .text          0x0000000000000000        0x0 /usr/lib/gcc/arm-none-eabi/6.3.1/thumb/v7e-m/fpv4-sp/hard/crtn.o
 .data          0x0000000000000000        0x0 /usr/lib/gcc/arm-none-eabi/6.3.1/thumb/v7e-m/fpv4-sp/hard/crtn.o
 .bss           0x0000000000000000        0x0 /usr/lib/gcc/arm-none-eabi/6.3.1/thumb/v7e-m/fpv4-sp/hard/crtn.o

Memory Configuration

Name             Origin             Length             Attributes
m_interrupts     0x0000000000000000 0x0000000000000400 xr
m_flash_config   0x0000000000000400 0x0000000000000010 xr
m_text           0x0000000000000410 0x00000000000ffbf0 xr
m_data           0x000000001fff0000 0x0000000000010000 rw
m_data_2         0x0000000020000000 0x0000000000030000 rw
*default*        0x0000000000000000 0xffffffffffffffff

Linker script and memory map

LOAD /usr/lib/gcc/arm-none-eabi/6.3.1/thumb/v7e-m/fpv4-sp/hard/crti.o
LOAD /usr/lib/gcc/arm-none-eabi/6.3.1/thumb/v7e-m/fpv4-sp/hard/crtbegin.o
LOAD /usr/lib/gcc/arm-none-eabi/6.3.1/../../../arm-none-eabi/lib/thumb/v7e-m/fpv4-sp/hard/crt0.o
LOAD /tmp/ccJinnRA.o
LOAD /tmp/ccYMvnVx.o
LOAD /tmp/ccmrEU8u.o
LOAD /tmp/cccGtVus.o
LOAD /tmp/ccmZbr0p.o
LOAD /tmp/ccr2xbJn.o
LOAD /tmp/cc70xeHl.o
LOAD /tmp/ccSuEqOj.o
LOAD /tmp/ccqptAyi.o
LOAD /tmp/ccsQreMh.o
LOAD /tmp/cc5r2u4g.o
LOAD /tmp/ccRgE7xg.o
LOAD /tmp/ccUz6o7f.o
LOAD /tmp/ccADnpPf.o
LOAD /tmp/ccAzOx0f.o
LOAD /tmp/cck5G0wg.o
LOAD /tmp/ccsSVoQh.o
LOAD /tmp/ccP58Erj.o
LOAD /tmp/ccHOtvel.o
LOAD /tmp/ccYuZcqn.o
LOAD /tmp/ccqX7CXp.o
LOAD /tmp/ccZt1oDs.o
LOAD /tmp/cciPt9sv.o
LOAD /tmp/ccvPAeyy.o
LOAD /tmp/cc6q353B.o
LOAD /tmp/ccib2XaG.o
LOAD /tmp/ccmAgXvK.o
LOAD /tmp/ccJOMn0O.o
LOAD /tmp/ccSzkrFT.o
LOAD /tmp/ccs41rvY.o
LOAD /tmp/cctHzJu3.o
LOAD /tmp/ccEA1PG8.o
LOAD /tmp/ccZCC41d.o
LOAD /tmp/ccjnZvvj.o
LOAD /tmp/ccfiTncp.o
LOAD /tmp/ccq02Fbv.o
LOAD /tmp/cci4yiDB.o
LOAD /tmp/ccIqN8JI.o
LOAD /tmp/ccXlA00P.o
LOAD /tmp/cczQ5JuX.o
LOAD /tmp/ccxHLbj5.o
LOAD /tmp/ccOQyGgd.o
LOAD /tmp/ccuzO6rl.o
LOAD /tmp/ccn2xWJu.o
LOAD /tmp/cc2f07iE.o
LOAD /tmp/ccKVAT1N.o
LOAD /tmp/ccidQQTX.o
LOAD /tmp/ccraETU7.o
LOAD /tmp/ccO6ZU8h.o
LOAD /tmp/cc7K4uvs.o
LOAD /tmp/cc2H0S6C.o
LOAD /tmp/ccsKxQTN.o
LOAD /tmp/ccQbXjQY.o
LOAD /tmp/ccH0n6V9.o
LOAD /tmp/ccPPFMTl.o
LOAD /tmp/ccVeZHiy.o
LOAD /tmp/cc2WF5UK.o
LOAD /tmp/cck8t4GX.o
LOAD /tmp/cccTnILa.o
LOAD /tmp/ccSBBS7n.o
LOAD /tmp/ccxU5cRB.o
LOAD /tmp/ccwdryJP.o
LOAD /tmp/ccYv5FL3.o
LOAD /tmp/cckgmMWh.o
LOAD /tmp/cc18Dkgw.o
LOAD /tmp/ccYT4uIK.o
LOAD /tmp/ccdMf6jZ.o
LOAD /tmp/ccUF9E5d.o
LOAD /tmp/ccBRGh1s.o
LOAD /tmp/ccDj6z7H.o
LOAD /tmp/cclUbfvX.o
LOAD /tmp/ccenC76c.o
LOAD /tmp/ccXVCA4s.o
LOAD /tmp/ccrkHFyJ.o
LOAD /tmp/cctL5jc0.o
LOAD /tmp/ccDEVlYg.o
LOAD /tmp/ccxh9cUx.o
LOAD /tmp/ccztIRDP.o
LOAD /tmp/cctafV97.o
LOAD /tmp/ccBB9Csr.o
LOAD /tmp/ccsWcM1K.o
LOAD /tmp/cc9lNNY4.o
LOAD /tmp/ccM3Zp6o.o
LOAD /tmp/ccyCAOrJ.o
LOAD /tmp/cchnibZ3.o
LOAD /tmp/ccmNEiFo.o
LOAD /tmp/cchROkuJ.o
LOAD /tmp/ccOqhOr4.o
LOAD /tmp/cckVeWxp.o
LOAD /tmp/ccFCHuMK.o
LOAD /tmp/ccdWpE95.o
LOAD /tmp/ccfYA4Fr.o
LOAD /tmp/ccwrUamN.o
LOAD /tmp/ccFhDhb9.o
LOAD /tmp/cc6ow3av.o
LOAD /tmp/ccapPqmR.o
LOAD /tmp/cchZ0jHd.o
LOAD /tmp/ccwXuVbA.o
LOAD /tmp/ccz6kUOW.o
LOAD /tmp/ccdDohAj.o
LOAD /tmp/ccJyQpuG.o
LOAD /tmp/cc6oHgy3.o
LOAD /tmp/ccFzJ6Kq.o
LOAD /tmp/ccb6RZ6N.o
LOAD /tmp/ccNVNJBb.o
LOAD /tmp/ccObyHhz.o
LOAD /tmp/cciGY57W.o
LOAD /tmp/ccvcVT7k.o
LOAD /tmp/cc12Y6gJ.o
LOAD /tmp/ccoj93A7.o
LOAD /tmp/cc6eOE5v.o
LOAD /tmp/ccFEBjJU.o
LOAD /tmp/ccR7lcwj.o
LOAD /tmp/cc3IxCtI.o
LOAD /tmp/ccJjynz7.o
LOAD /tmp/ccOvwWJw.o
                0x0000000000000800                __stack_size__ = 0x800
                0x0000000000006400                __heap_size__ = 0x6400
START GROUP
LOAD /usr/lib/gcc/arm-none-eabi/6.3.1/thumb/v7e-m/fpv4-sp/hard/libgcc.a
LOAD /usr/lib/gcc/arm-none-eabi/6.3.1/../../../arm-none-eabi/lib/thumb/v7e-m/fpv4-sp/hard/libc_nano.a
END GROUP
START GROUP
LOAD /usr/lib/gcc/arm-none-eabi/6.3.1/thumb/v7e-m/fpv4-sp/hard/libgcc.a
LOAD /usr/lib/gcc/arm-none-eabi/6.3.1/../../../arm-none-eabi/lib/thumb/v7e-m/fpv4-sp/hard/libc_nano.a
LOAD /usr/lib/gcc/arm-none-eabi/6.3.1/../../../arm-none-eabi/lib/thumb/v7e-m/fpv4-sp/hard/libnosys.a
END GROUP
START GROUP
LOAD /usr/lib/gcc/arm-none-eabi/6.3.1/thumb/v7e-m/fpv4-sp/hard/libgcc.a
LOAD /usr/lib/gcc/arm-none-eabi/6.3.1/../../../arm-none-eabi/lib/thumb/v7e-m/fpv4-sp/hard/libc_nano.a
LOAD /usr/lib/gcc/arm-none-eabi/6.3.1/../../../arm-none-eabi/lib/thumb/v7e-m/fpv4-sp/hard/libnosys.a
END GROUP
LOAD /usr/lib/gcc/arm-none-eabi/6.3.1/thumb/v7e-m/fpv4-sp/hard/crtend.o
LOAD /usr/lib/gcc/arm-none-eabi/6.3.1/thumb/v7e-m/fpv4-sp/hard/crtn.o
                0x0000000000000400                HEAP_SIZE = DEFINED (__heap_size__)?__heap_size__:0x400
                0x0000000000000400                STACK_SIZE = DEFINED (__stack_size__)?__stack_size__:0x400

.interrupts     0x0000000000000000      0x400
                0x0000000000000000                . = ALIGN (0x4)
 *(.isr_vector)
 .isr_vector    0x0000000000000000      0x400 /tmp/ccJinnRA.o
                0x0000000000000000                __isr_vector
                0x0000000000000400                . = ALIGN (0x4)

.flash_config   0x0000000000000400       0x10
                0x0000000000000400                . = ALIGN (0x4)
 *(.FlashConfig)
 .FlashConfig   0x0000000000000400       0x10 /tmp/ccJinnRA.o
                0x0000000000000410                . = ALIGN (0x4)

.text           0x0000000000000440     0xd398
                0x0000000000000440                . = ALIGN (0x4)
 *(.text)
 .text          0x0000000000000440       0xa4 /usr/lib/gcc/arm-none-eabi/6.3.1/thumb/v7e-m/fpv4-sp/hard/crtbegin.o
 .text          0x00000000000004e4       0x68 /usr/lib/gcc/arm-none-eabi/6.3.1/../../../arm-none-eabi/lib/thumb/v7e-m/fpv4-sp/hard/crt0.o
                0x00000000000004e4                _mainCRTStartup
                0x00000000000004e4                _start
 .text          0x000000000000054c      0x1e8 /tmp/ccJinnRA.o
                0x000000000000054c                Reset_Handler
                0x0000000000000594                DebugMon_Handler
                0x0000000000000594                DMA0_DriverIRQHandler
                0x0000000000000594                DMA12_DriverIRQHandler
                0x0000000000000594                SPI1_DriverIRQHandler
                0x0000000000000594                DMA_Error_DriverIRQHandler
                0x0000000000000594                SDHC_DriverIRQHandler
                0x0000000000000594                PIT0_IRQHandler
                0x0000000000000594                CMP2_IRQHandler
                0x0000000000000594                LLWU_IRQHandler
                0x0000000000000594                I2S0_Tx_DriverIRQHandler
                0x0000000000000594                DMA6_DriverIRQHandler
                0x0000000000000594                ENET_1588_Timer_DriverIRQHandler
                0x0000000000000594                I2C2_DriverIRQHandler
                0x0000000000000594                SWI_IRQHandler
                0x0000000000000594                ADC0_IRQHandler
                0x0000000000000594                UsageFault_Handler
                0x0000000000000594                CMT_IRQHandler
                0x0000000000000594                DefaultISR
                0x0000000000000594                UART5_ERR_DriverIRQHandler
                0x0000000000000594                DMA11_DriverIRQHandler
                0x0000000000000594                CMP1_IRQHandler
                0x0000000000000594                Reserved71_IRQHandler
                0x0000000000000594                PORTD_IRQHandler
                0x0000000000000594                PORTB_IRQHandler
                0x0000000000000594                DMA10_DriverIRQHandler
                0x0000000000000594                UART2_ERR_DriverIRQHandler
                0x0000000000000594                SPI2_DriverIRQHandler
                0x0000000000000594                ADC1_IRQHandler
                0x0000000000000594                DMA5_DriverIRQHandler
                0x0000000000000594                DMA4_DriverIRQHandler
                0x0000000000000594                PIT2_IRQHandler
                0x0000000000000594                RTC_IRQHandler
                0x0000000000000594                UART3_ERR_DriverIRQHandler
                0x0000000000000594                PDB0_IRQHandler
                0x0000000000000594                FTM1_IRQHandler
                0x0000000000000594                DMA3_DriverIRQHandler
                0x0000000000000594                PIT3_IRQHandler
                0x0000000000000594                RTC_Seconds_IRQHandler
                0x0000000000000594                MCG_IRQHandler
                0x0000000000000594                FTFE_IRQHandler
                0x0000000000000594                DMA9_DriverIRQHandler
                0x0000000000000594                DMA8_DriverIRQHandler
                0x0000000000000594                UART0_ERR_DriverIRQHandler
                0x0000000000000594                Read_Collision_IRQHandler
                0x0000000000000594                DMA14_DriverIRQHandler
                0x0000000000000594                USBDCD_IRQHandler
                0x0000000000000594                I2S0_Rx_DriverIRQHandler
                0x0000000000000594                USB0_IRQHandler
                0x0000000000000594                UART4_ERR_DriverIRQHandler
                0x0000000000000594                WDOG_EWM_IRQHandler
                0x0000000000000594                MemManage_Handler
                0x0000000000000594                UART0_LON_DriverIRQHandler
                0x0000000000000594                DMA1_DriverIRQHandler
                0x0000000000000594                RNG_IRQHandler
                0x0000000000000594                I2C1_DriverIRQHandler
                0x0000000000000594                ENET_Receive_DriverIRQHandler
                0x0000000000000594                DAC0_IRQHandler
                0x0000000000000594                DMA13_DriverIRQHandler
                0x0000000000000594                ENET_Error_DriverIRQHandler
                0x0000000000000594                DMA15_DriverIRQHandler
                0x0000000000000594                SPI0_DriverIRQHandler
                0x0000000000000594                PIT1_IRQHandler
                0x0000000000000594                LVD_LVW_IRQHandler
                0x0000000000000594                FTM0_IRQHandler
                0x0000000000000594                PORTA_IRQHandler
                0x0000000000000594                DAC1_IRQHandler
                0x0000000000000594                MCM_IRQHandler
                0x0000000000000594                CAN0_DriverIRQHandler
                0x0000000000000594                FTM3_IRQHandler
                0x0000000000000594                PORTE_IRQHandler
                0x0000000000000594                FTM2_IRQHandler
                0x0000000000000594                LPTMR0_IRQHandler
                0x0000000000000594                BusFault_Handler
                0x0000000000000594                UART1_ERR_DriverIRQHandler
                0x0000000000000594                DMA2_DriverIRQHandler
                0x0000000000000594                ENET_Transmit_DriverIRQHandler
                0x0000000000000594                I2C0_DriverIRQHandler
                0x0000000000000594                DMA7_DriverIRQHandler
                0x0000000000000594                CMP0_IRQHandler
                0x0000000000000594                PORTC_IRQHandler
                0x0000000000000598                NMI_Handler
                0x000000000000059c                HardFault_Handler
                0x00000000000005ac                DMA0_IRQHandler
                0x00000000000005b0                DMA1_IRQHandler
                0x00000000000005b4                DMA2_IRQHandler
                0x00000000000005b8                DMA3_IRQHandler
                0x00000000000005bc                DMA4_IRQHandler
                0x00000000000005c0                DMA5_IRQHandler
                0x00000000000005c4                DMA6_IRQHandler
                0x00000000000005c8                DMA7_IRQHandler
                0x00000000000005cc                DMA8_IRQHandler
                0x00000000000005d0                DMA9_IRQHandler
                0x00000000000005d4                DMA10_IRQHandler
                0x00000000000005d8                DMA11_IRQHandler
                0x00000000000005dc                DMA12_IRQHandler
                0x00000000000005e0                DMA13_IRQHandler
                0x00000000000005e4                DMA14_IRQHandler
                0x00000000000005e8                DMA15_IRQHandler
                0x00000000000005ec                DMA_Error_IRQHandler
                0x00000000000005f0                I2C0_IRQHandler
                0x00000000000005f4                I2C1_IRQHandler
                0x00000000000005f8                SPI0_IRQHandler
                0x00000000000005fc                SPI1_IRQHandler
                0x0000000000000600                I2S0_Tx_IRQHandler
                0x0000000000000604                I2S0_Rx_IRQHandler
                0x0000000000000608                UART0_LON_IRQHandler
                0x000000000000060c                UART0_RX_TX_IRQHandler
                0x0000000000000610                UART0_ERR_IRQHandler
                0x0000000000000614                UART1_RX_TX_IRQHandler
                0x0000000000000618                UART1_ERR_IRQHandler
                0x000000000000061c                UART2_RX_TX_IRQHandler
                0x0000000000000620                UART2_ERR_IRQHandler
                0x0000000000000624                UART3_RX_TX_IRQHandler
                0x0000000000000628                UART3_ERR_IRQHandler
                0x000000000000062c                SPI2_IRQHandler
                0x0000000000000630                UART4_RX_TX_IRQHandler
                0x0000000000000634                UART4_ERR_IRQHandler
                0x0000000000000638                UART5_RX_TX_IRQHandler
                0x000000000000063c                UART5_ERR_IRQHandler
                0x0000000000000640                I2C2_IRQHandler
                0x0000000000000644                CAN0_ORed_Message_buffer_IRQHandler
                0x0000000000000648                CAN0_Bus_Off_IRQHandler
                0x000000000000064c                CAN0_Error_IRQHandler
                0x0000000000000650                CAN0_Tx_Warning_IRQHandler
                0x0000000000000654                CAN0_Rx_Warning_IRQHandler
                0x0000000000000658                CAN0_Wake_Up_IRQHandler
                0x000000000000065c                SDHC_IRQHandler
 .text          0x0000000000000734       0xa0 /usr/lib/gcc/arm-none-eabi/6.3.1/thumb/v7e-m/fpv4-sp/hard/libgcc.a(_aeabi_ldivmod.o)
                0x0000000000000734                __aeabi_ldivmod
 .text          0x00000000000007d4       0x30 /usr/lib/gcc/arm-none-eabi/6.3.1/thumb/v7e-m/fpv4-sp/hard/libgcc.a(_aeabi_uldivmod.o)
                0x00000000000007d4                __aeabi_uldivmod
 .text          0x0000000000000804      0x2dc /usr/lib/gcc/arm-none-eabi/6.3.1/thumb/v7e-m/fpv4-sp/hard/libgcc.a(_udivmoddi4.o)
                0x0000000000000804                __udivmoddi4
 .text          0x0000000000000ae0        0x4 /usr/lib/gcc/arm-none-eabi/6.3.1/thumb/v7e-m/fpv4-sp/hard/libgcc.a(_dvmd_tls.o)
                0x0000000000000ae0                __aeabi_ldiv0
                0x0000000000000ae0                __aeabi_idiv0
 .text          0x0000000000000ae4        0xc /usr/lib/gcc/arm-none-eabi/6.3.1/../../../arm-none-eabi/lib/thumb/v7e-m/fpv4-sp/hard/libc_nano.a(lib_a-atexit.o)
                0x0000000000000ae4                atexit
 .text          0x0000000000000af0        0xc /usr/lib/gcc/arm-none-eabi/6.3.1/../../../arm-none-eabi/lib/thumb/v7e-m/fpv4-sp/hard/libc_nano.a(lib_a-errno.o)
                0x0000000000000af0                __errno
 .text          0x0000000000000afc       0x28 /usr/lib/gcc/arm-none-eabi/6.3.1/../../../arm-none-eabi/lib/thumb/v7e-m/fpv4-sp/hard/libc_nano.a(lib_a-exit.o)
                0x0000000000000afc                exit
 .text          0x0000000000000b24       0x34 /usr/lib/gcc/arm-none-eabi/6.3.1/../../../arm-none-eabi/lib/thumb/v7e-m/fpv4-sp/hard/libc_nano.a(lib_a-fini.o)
                0x0000000000000b24                __libc_fini_array
 .text          0x0000000000000b58       0x50 /usr/lib/gcc/arm-none-eabi/6.3.1/../../../arm-none-eabi/lib/thumb/v7e-m/fpv4-sp/hard/libc_nano.a(lib_a-init.o)
                0x0000000000000b58                __libc_init_array
 .text          0x0000000000000ba8       0x20 /usr/lib/gcc/arm-none-eabi/6.3.1/../../../arm-none-eabi/lib/thumb/v7e-m/fpv4-sp/hard/libc_nano.a(lib_a-malloc.o)
                0x0000000000000ba8                malloc
                0x0000000000000bb8                free
 .text          0x0000000000000bc8       0x60 /usr/lib/gcc/arm-none-eabi/6.3.1/../../../arm-none-eabi/lib/thumb/v7e-m/fpv4-sp/hard/libc_nano.a(lib_a-memcmp.o)
                0x0000000000000bc8                memcmp
 .text          0x0000000000000c28      0x134 /usr/lib/gcc/arm-none-eabi/6.3.1/../../../arm-none-eabi/lib/thumb/v7e-m/fpv4-sp/hard/libc_nano.a(lib_a-memcpy.o)
                0x0000000000000c28                memcpy
 .text          0x0000000000000d5c       0x9c /usr/lib/gcc/arm-none-eabi/6.3.1/../../../arm-none-eabi/lib/thumb/v7e-m/fpv4-sp/hard/libc_nano.a(lib_a-memset.o)
                0x0000000000000d5c                memset
 .text          0x0000000000000df8       0x90 /usr/lib/gcc/arm-none-eabi/6.3.1/../../../arm-none-eabi/lib/thumb/v7e-m/fpv4-sp/hard/libc_nano.a(lib_a-nano-freer.o)
                0x0000000000000df8                _free_r
 .text          0x0000000000000e88       0xbc /usr/lib/gcc/arm-none-eabi/6.3.1/../../../arm-none-eabi/lib/thumb/v7e-m/fpv4-sp/hard/libc_nano.a(lib_a-nano-mallocr.o)
                0x0000000000000e88                _malloc_r
 .text          0x0000000000000f44       0x24 /usr/lib/gcc/arm-none-eabi/6.3.1/../../../arm-none-eabi/lib/thumb/v7e-m/fpv4-sp/hard/libc_nano.a(lib_a-sbrkr.o)
                0x0000000000000f44                _sbrk_r
 *fill*         0x0000000000000f68       0x18 
 .text          0x0000000000000f80       0xdc /usr/lib/gcc/arm-none-eabi/6.3.1/../../../arm-none-eabi/lib/thumb/v7e-m/fpv4-sp/hard/libc_nano.a(lib_a-strlen.o)
                0x0000000000000f80                strlen
 .text          0x000000000000105c       0xd0 /usr/lib/gcc/arm-none-eabi/6.3.1/../../../arm-none-eabi/lib/thumb/v7e-m/fpv4-sp/hard/libc_nano.a(lib_a-__atexit.o)
                0x000000000000105c                __register_exitproc
 .text          0x000000000000112c       0xf4 /usr/lib/gcc/arm-none-eabi/6.3.1/../../../arm-none-eabi/lib/thumb/v7e-m/fpv4-sp/hard/libc_nano.a(lib_a-__call_atexit.o)
                0x000000000000112c                __call_exitprocs
 .text          0x0000000000001220        0x4 /usr/lib/gcc/arm-none-eabi/6.3.1/../../../arm-none-eabi/lib/thumb/v7e-m/fpv4-sp/hard/libnosys.a(_exit.o)
                0x0000000000001220                _exit
 *(.text*)
 .text.blinky_task
                0x0000000000001224       0x30 /tmp/ccYMvnVx.o
                0x0000000000001224                blinky_task
 .text.print_dhcp_state
                0x0000000000001254      0x108 /tmp/ccYMvnVx.o
 .text.init_gpio
                0x000000000000135c       0x40 /tmp/ccYMvnVx.o
                0x000000000000135c                init_gpio
 .text.init_sclk_pin
                0x000000000000139c       0x2c /tmp/ccYMvnVx.o
                0x000000000000139c                init_sclk_pin
 .text.dhcp_init
                0x00000000000013c8       0xc8 /tmp/ccYMvnVx.o
                0x00000000000013c8                dhcp_init
 .text.startup.main
                0x0000000000001490       0x60 /tmp/ccYMvnVx.o
                0x0000000000001490                main
 .text.BOARD_InitPins
                0x00000000000014f0      0x160 /tmp/ccmrEU8u.o
                0x00000000000014f0                BOARD_InitPins
 .text.BOARD_InitDebugConsole
                0x0000000000001650       0x18 /tmp/cccGtVus.o
                0x0000000000001650                BOARD_InitDebugConsole
 .text.BOARD_BootClockRUN
                0x0000000000001668       0x6c /tmp/ccmZbr0p.o
                0x0000000000001668                BOARD_BootClockRUN
 .text.PHY_Write
                0x00000000000016d4       0x34 /tmp/ccr2xbJn.o
                0x00000000000016d4                PHY_Write
 .text.PHY_Read
                0x0000000000001708       0x38 /tmp/ccr2xbJn.o
                0x0000000000001708                PHY_Read
 .text.PHY_Init
                0x0000000000001740       0xec /tmp/ccr2xbJn.o
                0x0000000000001740                PHY_Init
 .text.PHY_GetLinkStatus
                0x000000000000182c       0x1e /tmp/ccr2xbJn.o
                0x000000000000182c                PHY_GetLinkStatus
 .text.PHY_GetLinkSpeedDuplex
                0x000000000000184a       0x36 /tmp/ccr2xbJn.o
                0x000000000000184a                PHY_GetLinkSpeedDuplex
 .text.ethernet_callback
                0x0000000000001880       0x58 /tmp/cc70xeHl.o
 .text.ethernetif_enet_init
                0x00000000000018d8       0xb8 /tmp/cc70xeHl.o
                0x00000000000018d8                ethernetif_enet_init
 .text.ethernetif_enet_ptr
                0x0000000000001990        0x2 /tmp/cc70xeHl.o
                0x0000000000001990                ethernetif_enet_ptr
 .text.ethernetif_linkinput
                0x0000000000001992       0x88 /tmp/cc70xeHl.o
                0x0000000000001992                ethernetif_linkinput
 *fill*         0x0000000000001a1a        0x2 
 .text.ethernetif_linkoutput
                0x0000000000001a1c       0x84 /tmp/cc70xeHl.o
                0x0000000000001a1c                ethernetif_linkoutput
 .text.ethernetif0_init
                0x0000000000001aa0       0x30 /tmp/cc70xeHl.o
                0x0000000000001aa0                ethernetif0_init
 .text.CLOCK_GetMcgExtClkFreq
                0x0000000000001ad0       0x34 /tmp/ccqptAyi.o
 .text.CLOCK_GetFllExtRefClkFreq
                0x0000000000001b04       0x44 /tmp/ccqptAyi.o
 .text.CLOCK_GetInternalRefClkSelectFreq
                0x0000000000001b48       0x28 /tmp/ccqptAyi.o
 .text.CLOCK_GetOsc0ErClkFreq
                0x0000000000001b70       0x18 /tmp/ccqptAyi.o
                0x0000000000001b70                CLOCK_GetOsc0ErClkFreq
 .text.CLOCK_GetEr32kClkFreq
                0x0000000000001b88       0x3c /tmp/ccqptAyi.o
                0x0000000000001b88                CLOCK_GetEr32kClkFreq
 .text.CLOCK_SetSimConfig
                0x0000000000001bc4       0x3c /tmp/ccqptAyi.o
                0x0000000000001bc4                CLOCK_SetSimConfig
 .text.CLOCK_GetFllFreq
                0x0000000000001c00       0x50 /tmp/ccqptAyi.o
                0x0000000000001c00                CLOCK_GetFllFreq
 .text.CLOCK_GetInternalRefClkFreq
                0x0000000000001c50       0x14 /tmp/ccqptAyi.o
                0x0000000000001c50                CLOCK_GetInternalRefClkFreq
 .text.CLOCK_GetPll0Freq
                0x0000000000001c64       0x2c /tmp/ccqptAyi.o
                0x0000000000001c64                CLOCK_GetPll0Freq
 .text.CLOCK_GetPllFllSelClkFreq
                0x0000000000001c90       0x2c /tmp/ccqptAyi.o
                0x0000000000001c90                CLOCK_GetPllFllSelClkFreq
 .text.CLOCK_GetOutClkFreq
                0x0000000000001cbc       0x28 /tmp/ccqptAyi.o
                0x0000000000001cbc                CLOCK_GetOutClkFreq
 .text.CLOCK_GetCoreSysClkFreq
                0x0000000000001ce4       0x1c /tmp/ccqptAyi.o
                0x0000000000001ce4                CLOCK_GetCoreSysClkFreq
 .text.CLOCK_GetFixedFreqClkFreq
                0x0000000000001d00       0x30 /tmp/ccqptAyi.o
                0x0000000000001d00                CLOCK_GetFixedFreqClkFreq
 .text.CLOCK_GetFreq
                0x0000000000001d30       0xb8 /tmp/ccqptAyi.o
                0x0000000000001d30                CLOCK_GetFreq
 .text.CLOCK_SetExternalRefClkConfig
                0x0000000000001de8       0x30 /tmp/ccqptAyi.o
                0x0000000000001de8                CLOCK_SetExternalRefClkConfig
 .text.CLOCK_SetInternalRefClkConfig
                0x0000000000001e18       0x80 /tmp/ccqptAyi.o
                0x0000000000001e18                CLOCK_SetInternalRefClkConfig
 .text.CLOCK_EnablePll0
                0x0000000000001e98       0x34 /tmp/ccqptAyi.o
                0x0000000000001e98                CLOCK_EnablePll0
 .text.CLOCK_InitOsc0
                0x0000000000001ecc       0x64 /tmp/ccqptAyi.o
                0x0000000000001ecc                CLOCK_InitOsc0
 .text.CLOCK_SetPbeMode
                0x0000000000001f30       0x50 /tmp/ccqptAyi.o
                0x0000000000001f30                CLOCK_SetPbeMode
 .text.CLOCK_BootToPeeMode
                0x0000000000001f80       0x30 /tmp/ccqptAyi.o
                0x0000000000001f80                CLOCK_BootToPeeMode
 .text.ENET_TransmitIRQHandler
                0x0000000000001fb0       0x28 /tmp/ccsQreMh.o
                0x0000000000001fb0                ENET_TransmitIRQHandler
 .text.ENET_ReceiveIRQHandler
                0x0000000000001fd8       0x28 /tmp/ccsQreMh.o
                0x0000000000001fd8                ENET_ReceiveIRQHandler
 .text.ENET_ErrorIRQHandler
                0x0000000000002000       0x42 /tmp/ccsQreMh.o
                0x0000000000002000                ENET_ErrorIRQHandler
 .text.ENET_UpdateReadBuffers.constprop.3
                0x0000000000002042       0x30 /tmp/ccsQreMh.o
 *fill*         0x0000000000002072        0x2 
 .text.ENET_GetInstance
                0x0000000000002074       0x10 /tmp/ccsQreMh.o
                0x0000000000002074                ENET_GetInstance
 .text.ENET_GetDefaultConfig
                0x0000000000002084       0x1e /tmp/ccsQreMh.o
                0x0000000000002084                ENET_GetDefaultConfig
 .text.ENET_SetCallback
                0x00000000000020a2        0x6 /tmp/ccsQreMh.o
                0x00000000000020a2                ENET_SetCallback
 .text.ENET_SetMacAddr
                0x00000000000020a8       0x28 /tmp/ccsQreMh.o
                0x00000000000020a8                ENET_SetMacAddr
 .text.ENET_SetSMI
                0x00000000000020d0       0x40 /tmp/ccsQreMh.o
                0x00000000000020d0                ENET_SetSMI
 .text.ENET_Init
                0x0000000000002110      0x334 /tmp/ccsQreMh.o
                0x0000000000002110                ENET_Init
 .text.ENET_StartSMIWrite
                0x0000000000002444       0x2a /tmp/ccsQreMh.o
                0x0000000000002444                ENET_StartSMIWrite
 .text.ENET_StartSMIRead
                0x000000000000246e       0x22 /tmp/ccsQreMh.o
                0x000000000000246e                ENET_StartSMIRead
 .text.ENET_GetRxFrameSize
                0x0000000000002490       0x58 /tmp/ccsQreMh.o
                0x0000000000002490                ENET_GetRxFrameSize
 .text.ENET_ReadFrame
                0x00000000000024e8       0x9a /tmp/ccsQreMh.o
                0x00000000000024e8                ENET_ReadFrame
 .text.ENET_SendFrame
                0x0000000000002582       0xe0 /tmp/ccsQreMh.o
                0x0000000000002582                ENET_SendFrame
 *fill*         0x0000000000002662        0x2 
 .text.ENET_Transmit_IRQHandler
                0x0000000000002664       0x20 /tmp/ccsQreMh.o
                0x0000000000002664                ENET_Transmit_IRQHandler
 .text.ENET_Receive_IRQHandler
                0x0000000000002684       0x20 /tmp/ccsQreMh.o
                0x0000000000002684                ENET_Receive_IRQHandler
 .text.ENET_Error_IRQHandler
                0x00000000000026a4       0x20 /tmp/ccsQreMh.o
                0x00000000000026a4                ENET_Error_IRQHandler
 .text.ENET_1588_Timer_IRQHandler
                0x00000000000026c4       0x1c /tmp/ccsQreMh.o
                0x00000000000026c4                ENET_1588_Timer_IRQHandler
 .text.pvPortMalloc
                0x00000000000026e0       0x18 /tmp/cc5r2u4g.o
                0x00000000000026e0                pvPortMalloc
 .text.vPortFree
                0x00000000000026f8       0x1a /tmp/cc5r2u4g.o
                0x00000000000026f8                vPortFree
 .text.xEventGroupCreate
                0x0000000000002712       0x1a /tmp/ccRgE7xg.o
                0x0000000000002712                xEventGroupCreate
 .text.xEventGroupWaitBits
                0x000000000000272c      0x114 /tmp/ccRgE7xg.o
                0x000000000000272c                xEventGroupWaitBits
 .text.xEventGroupSetBits
                0x0000000000002840       0x82 /tmp/ccRgE7xg.o
                0x0000000000002840                xEventGroupSetBits
 .text.vEventGroupSetBitsCallback
                0x00000000000028c2        0x4 /tmp/ccRgE7xg.o
                0x00000000000028c2                vEventGroupSetBitsCallback
 *fill*         0x00000000000028c6        0x2 
 .text.xEventGroupSetBitsFromISR
                0x00000000000028c8       0x10 /tmp/ccRgE7xg.o
                0x00000000000028c8                xEventGroupSetBitsFromISR
 .text.vListInitialise
                0x00000000000028d8       0x16 /tmp/ccUz6o7f.o
                0x00000000000028d8                vListInitialise
 .text.vListInitialiseItem
                0x00000000000028ee        0x6 /tmp/ccUz6o7f.o
                0x00000000000028ee                vListInitialiseItem
 .text.vListInsertEnd
                0x00000000000028f4       0x18 /tmp/ccUz6o7f.o
                0x00000000000028f4                vListInsertEnd
 .text.vListInsert
                0x000000000000290c       0x2e /tmp/ccUz6o7f.o
                0x000000000000290c                vListInsert
 .text.uxListRemove
                0x000000000000293a       0x22 /tmp/ccUz6o7f.o
                0x000000000000293a                uxListRemove
 .text.prvTaskExitError
                0x000000000000295c       0x40 /tmp/ccADnpPf.o
 .text.unlikely.prvPortStartFirstTask
                0x000000000000299c       0x28 /tmp/ccADnpPf.o
 .text.unlikely.vPortEnableVFP
                0x00000000000029c4       0x14 /tmp/ccADnpPf.o
 .text.pxPortInitialiseStack
                0x00000000000029d8       0x2c /tmp/ccADnpPf.o
                0x00000000000029d8                pxPortInitialiseStack
 *fill*         0x0000000000002a04        0xc 
 .text.SVC_Handler
                0x0000000000002a10       0x24 /tmp/ccADnpPf.o
                0x0000000000002a10                SVC_Handler
 .text.vPortEnterCritical
                0x0000000000002a34       0x44 /tmp/ccADnpPf.o
                0x0000000000002a34                vPortEnterCritical
 .text.vPortExitCritical
                0x0000000000002a78       0x28 /tmp/ccADnpPf.o
                0x0000000000002a78                vPortExitCritical
 .text.PendSV_Handler
                0x0000000000002aa0       0x64 /tmp/ccADnpPf.o
                0x0000000000002aa0                PendSV_Handler
 .text.SysTick_Handler
                0x0000000000002b04       0x2c /tmp/ccADnpPf.o
                0x0000000000002b04                SysTick_Handler
 .text.vPortSetupTimerInterrupt
                0x0000000000002b30       0x34 /tmp/ccADnpPf.o
                0x0000000000002b30                vPortSetupTimerInterrupt
 .text.xPortStartScheduler
                0x0000000000002b64      0x10c /tmp/ccADnpPf.o
                0x0000000000002b64                xPortStartScheduler
 .text.vPortValidateInterruptPriority
                0x0000000000002c70       0x5c /tmp/ccADnpPf.o
                0x0000000000002c70                vPortValidateInterruptPriority
 .text.prvIsQueueEmpty
                0x0000000000002ccc       0x16 /tmp/ccAzOx0f.o
 .text.unlikely.prvCopyDataToQueue
                0x0000000000002ce2       0x66 /tmp/ccAzOx0f.o
 .text.unlikely.prvCopyDataFromQueue
                0x0000000000002d48       0x2a /tmp/ccAzOx0f.o
 .text.prvUnlockQueue
                0x0000000000002d72       0x70 /tmp/ccAzOx0f.o
 *fill*         0x0000000000002de2        0x2 
 .text.xQueueGenericReset
                0x0000000000002de4       0x80 /tmp/ccAzOx0f.o
                0x0000000000002de4                xQueueGenericReset
 .text.xQueueGenericCreate
                0x0000000000002e64       0x48 /tmp/ccAzOx0f.o
                0x0000000000002e64                xQueueGenericCreate
 .text.xQueueCreateCountingSemaphore
                0x0000000000002eac       0x3c /tmp/ccAzOx0f.o
                0x0000000000002eac                xQueueCreateCountingSemaphore
 .text.xQueueGenericSend
                0x0000000000002ee8      0x16c /tmp/ccAzOx0f.o
                0x0000000000002ee8                xQueueGenericSend
 .text.xQueueCreateMutex
                0x0000000000003054       0x24 /tmp/ccAzOx0f.o
                0x0000000000003054                xQueueCreateMutex
 .text.xQueueGenericSendFromISR
                0x0000000000003078       0xc4 /tmp/ccAzOx0f.o
                0x0000000000003078                xQueueGenericSendFromISR
 .text.xQueueReceive
                0x000000000000313c      0x148 /tmp/ccAzOx0f.o
                0x000000000000313c                xQueueReceive
 .text.xQueueSemaphoreTake
                0x0000000000003284      0x180 /tmp/ccAzOx0f.o
                0x0000000000003284                xQueueSemaphoreTake
 .text.vQueueAddToRegistry
                0x0000000000003404       0x24 /tmp/ccAzOx0f.o
                0x0000000000003404                vQueueAddToRegistry
 .text.vQueueUnregisterQueue
                0x0000000000003428       0x28 /tmp/ccAzOx0f.o
                0x0000000000003428                vQueueUnregisterQueue
 .text.vQueueDelete
                0x0000000000003450       0x26 /tmp/ccAzOx0f.o
                0x0000000000003450                vQueueDelete
 .text.vQueueWaitForMessageRestricted
                0x0000000000003476       0x46 /tmp/ccAzOx0f.o
                0x0000000000003476                vQueueWaitForMessageRestricted
 .text.prvResetNextTaskUnblockTime
                0x00000000000034bc       0x24 /tmp/ccsSVoQh.o
 .text.prvAddCurrentTaskToDelayedList
                0x00000000000034e0       0x8c /tmp/ccsSVoQh.o
 .text.prvIdleTask
                0x000000000000356c       0x6c /tmp/ccsSVoQh.o
 .text.xTaskCreate
                0x00000000000035d8      0x1c0 /tmp/ccsSVoQh.o
                0x00000000000035d8                xTaskCreate
 .text.vTaskDelete
                0x0000000000003798       0xd8 /tmp/ccsSVoQh.o
                0x0000000000003798                vTaskDelete
 .text.vTaskStartScheduler
                0x0000000000003870       0x80 /tmp/ccsSVoQh.o
                0x0000000000003870                vTaskStartScheduler
 .text.vTaskSuspendAll
                0x00000000000038f0       0x10 /tmp/ccsSVoQh.o
                0x00000000000038f0                vTaskSuspendAll
 .text.xTaskGetTickCount
                0x0000000000003900        0xc /tmp/ccsSVoQh.o
                0x0000000000003900                xTaskGetTickCount
 .text.xTaskIncrementTick
                0x000000000000390c      0x104 /tmp/ccsSVoQh.o
                0x000000000000390c                xTaskIncrementTick
 .text.xTaskResumeAll
                0x0000000000003a10       0xf0 /tmp/ccsSVoQh.o
                0x0000000000003a10                xTaskResumeAll
 .text.vTaskDelay
                0x0000000000003b00       0x48 /tmp/ccsSVoQh.o
                0x0000000000003b00                vTaskDelay
 .text.vTaskSwitchContext
                0x0000000000003b48       0x74 /tmp/ccsSVoQh.o
                0x0000000000003b48                vTaskSwitchContext
 .text.vTaskPlaceOnEventList
                0x0000000000003bbc       0x34 /tmp/ccsSVoQh.o
                0x0000000000003bbc                vTaskPlaceOnEventList
 .text.vTaskPlaceOnUnorderedEventList
                0x0000000000003bf0       0x58 /tmp/ccsSVoQh.o
                0x0000000000003bf0                vTaskPlaceOnUnorderedEventList
 .text.vTaskPlaceOnEventListRestricted
                0x0000000000003c48       0x3c /tmp/ccsSVoQh.o
                0x0000000000003c48                vTaskPlaceOnEventListRestricted
 .text.xTaskRemoveFromEventList
                0x0000000000003c84       0x84 /tmp/ccsSVoQh.o
                0x0000000000003c84                xTaskRemoveFromEventList
 .text.vTaskRemoveFromUnorderedEventList
                0x0000000000003d08       0x88 /tmp/ccsSVoQh.o
                0x0000000000003d08                vTaskRemoveFromUnorderedEventList
 .text.vTaskInternalSetTimeOutState
                0x0000000000003d90       0x18 /tmp/ccsSVoQh.o
                0x0000000000003d90                vTaskInternalSetTimeOutState
 .text.xTaskCheckForTimeOut
                0x0000000000003da8       0x78 /tmp/ccsSVoQh.o
                0x0000000000003da8                xTaskCheckForTimeOut
 .text.vTaskMissedYield
                0x0000000000003e20        0xc /tmp/ccsSVoQh.o
                0x0000000000003e20                vTaskMissedYield
 .text.xTaskGetSchedulerState
                0x0000000000003e2c       0x20 /tmp/ccsSVoQh.o
                0x0000000000003e2c                xTaskGetSchedulerState
 .text.xTaskPriorityInherit
                0x0000000000003e4c       0xa8 /tmp/ccsSVoQh.o
                0x0000000000003e4c                xTaskPriorityInherit
 .text.xTaskPriorityDisinherit
                0x0000000000003ef4       0xa0 /tmp/ccsSVoQh.o
                0x0000000000003ef4                xTaskPriorityDisinherit
 .text.vTaskPriorityDisinheritAfterTimeout
                0x0000000000003f94       0xb4 /tmp/ccsSVoQh.o
                0x0000000000003f94                vTaskPriorityDisinheritAfterTimeout
 .text.uxTaskResetEventItemValue
                0x0000000000004048       0x18 /tmp/ccsSVoQh.o
                0x0000000000004048                uxTaskResetEventItemValue
 .text.pvTaskIncrementMutexHeldCount
                0x0000000000004060       0x18 /tmp/ccsSVoQh.o
                0x0000000000004060                pvTaskIncrementMutexHeldCount
 .text.prvCheckForValidListAndQueue
                0x0000000000004078       0x58 /tmp/ccP58Erj.o
 .text.prvInsertTimerInActiveList
                0x00000000000040d0       0x3c /tmp/ccP58Erj.o
 .text.xTimerCreateTimerTask
                0x000000000000410c       0x4c /tmp/ccP58Erj.o
                0x000000000000410c                xTimerCreateTimerTask
 .text.xTimerGenericCommand
                0x0000000000004158       0x58 /tmp/ccP58Erj.o
                0x0000000000004158                xTimerGenericCommand
 .text.prvSwitchTimerLists
                0x00000000000041b0       0x80 /tmp/ccP58Erj.o
 .text.prvTimerTask
                0x0000000000004230      0x210 /tmp/ccP58Erj.o
 .text.xTimerPendFunctionCallFromISR
                0x0000000000004440       0x28 /tmp/ccP58Erj.o
                0x0000000000004440                xTimerPendFunctionCallFromISR
 .text.DbgConsole_SendDataReliable
                0x0000000000004468       0x20 /tmp/ccvPAeyy.o
                0x0000000000004468                DbgConsole_SendDataReliable
 .text.DbgConsole_PrintCallback
                0x0000000000004488       0x3a /tmp/ccvPAeyy.o
 *fill*         0x00000000000044c2        0x2 
 .text.DbgConsole_Init
                0x00000000000044c4       0x70 /tmp/ccvPAeyy.o
                0x00000000000044c4                DbgConsole_Init
 .text.DbgConsole_Printf
                0x0000000000004534       0x40 /tmp/ccvPAeyy.o
                0x0000000000004534                DbgConsole_Printf
 .text.StrFormatPrintf
                0x0000000000004574      0x5ac /tmp/cc6q353B.o
                0x0000000000004574                StrFormatPrintf
 .text.UART_GetInstance
                0x0000000000004b20       0x1c /tmp/ccib2XaG.o
                0x0000000000004b20                UART_GetInstance
 .text.UART_Init
                0x0000000000004b3c      0x108 /tmp/ccib2XaG.o
                0x0000000000004b3c                UART_Init
 .text.UART_GetDefaultConfig
                0x0000000000004c44       0x2a /tmp/ccib2XaG.o
                0x0000000000004c44                UART_GetDefaultConfig
 .text.UART_WriteBlocking
                0x0000000000004c6e       0x16 /tmp/ccib2XaG.o
                0x0000000000004c6e                UART_WriteBlocking
 .text.UART0_DriverIRQHandler
                0x0000000000004c84       0x20 /tmp/ccib2XaG.o
                0x0000000000004c84                UART0_DriverIRQHandler
 .text.UART0_RX_TX_DriverIRQHandler
                0x0000000000004ca4        0xc /tmp/ccib2XaG.o
                0x0000000000004ca4                UART0_RX_TX_DriverIRQHandler
 .text.UART1_DriverIRQHandler
                0x0000000000004cb0       0x20 /tmp/ccib2XaG.o
                0x0000000000004cb0                UART1_DriverIRQHandler
 .text.UART1_RX_TX_DriverIRQHandler
                0x0000000000004cd0        0xc /tmp/ccib2XaG.o
                0x0000000000004cd0                UART1_RX_TX_DriverIRQHandler
 .text.UART2_DriverIRQHandler
                0x0000000000004cdc       0x20 /tmp/ccib2XaG.o
                0x0000000000004cdc                UART2_DriverIRQHandler
 .text.UART2_RX_TX_DriverIRQHandler
                0x0000000000004cfc        0xc /tmp/ccib2XaG.o
                0x0000000000004cfc                UART2_RX_TX_DriverIRQHandler
 .text.UART3_DriverIRQHandler
                0x0000000000004d08       0x20 /tmp/ccib2XaG.o
                0x0000000000004d08                UART3_DriverIRQHandler
 .text.UART3_RX_TX_DriverIRQHandler
                0x0000000000004d28        0xc /tmp/ccib2XaG.o
                0x0000000000004d28                UART3_RX_TX_DriverIRQHandler
 .text.UART4_DriverIRQHandler
                0x0000000000004d34       0x20 /tmp/ccib2XaG.o
                0x0000000000004d34                UART4_DriverIRQHandler
 .text.UART4_RX_TX_DriverIRQHandler
                0x0000000000004d54        0xc /tmp/ccib2XaG.o
                0x0000000000004d54                UART4_RX_TX_DriverIRQHandler
 .text.UART5_DriverIRQHandler
                0x0000000000004d60       0x20 /tmp/ccib2XaG.o
                0x0000000000004d60                UART5_DriverIRQHandler
 .text.UART5_RX_TX_DriverIRQHandler
                0x0000000000004d80        0xc /tmp/ccib2XaG.o
                0x0000000000004d80                UART5_RX_TX_DriverIRQHandler
 .text.SystemInitHook
                0x0000000000004d8c        0x2 /tmp/ccJOMn0O.o
                0x0000000000004d8c                SystemInitHook
 *fill*         0x0000000000004d8e        0x2 
 .text.SystemInit
                0x0000000000004d90       0x34 /tmp/ccJOMn0O.o
                0x0000000000004d90                SystemInit
 .text.HAL_UartInit
                0x0000000000004dc4       0x7c /tmp/ccSzkrFT.o
                0x0000000000004dc4                HAL_UartInit
 .text.HAL_UartSendBlocking
                0x0000000000004e40       0x18 /tmp/ccSzkrFT.o
                0x0000000000004e40                HAL_UartSendBlocking
 .text.SerialManager_Init
                0x0000000000004e58       0x2a /tmp/ccs41rvY.o
                0x0000000000004e58                SerialManager_Init
 .text.SerialManager_OpenWriteHandle
                0x0000000000004e82       0x1c /tmp/ccs41rvY.o
                0x0000000000004e82                SerialManager_OpenWriteHandle
 .text.SerialManager_OpenReadHandle
                0x0000000000004e9e       0x22 /tmp/ccs41rvY.o
                0x0000000000004e9e                SerialManager_OpenReadHandle
 .text.SerialManager_WriteBlocking
                0x0000000000004ec0       0x14 /tmp/ccs41rvY.o
                0x0000000000004ec0                SerialManager_WriteBlocking
 .text.Serial_UartInit
                0x0000000000004ed4       0x3e /tmp/cctHzJu3.o
                0x0000000000004ed4                Serial_UartInit
 .text.Serial_UartWrite
                0x0000000000004f12        0x4 /tmp/cctHzJu3.o
                0x0000000000004f12                Serial_UartWrite
 *fill*         0x0000000000004f16        0x2 
 .text.ethernetif_phy_init
                0x0000000000004f18       0xc0 /tmp/ccfiTncp.o
                0x0000000000004f18                ethernetif_phy_init
 .text.ethernetif_input
                0x0000000000004fd8       0x30 /tmp/ccfiTncp.o
                0x0000000000004fd8                ethernetif_input
 .text.ethernetif_init
                0x0000000000005008       0x98 /tmp/ccfiTncp.o
                0x0000000000005008                ethernetif_init
 .text.sys_assert
                0x00000000000050a0       0x18 /tmp/ccq02Fbv.o
                0x00000000000050a0                sys_assert
 .text.sys_mbox_new
                0x00000000000050b8       0x1a /tmp/ccq02Fbv.o
                0x00000000000050b8                sys_mbox_new
 *fill*         0x00000000000050d2        0x2 
 .text.sys_mbox_trypost
                0x00000000000050d4       0x5c /tmp/ccq02Fbv.o
                0x00000000000050d4                sys_mbox_trypost
 .text.sys_arch_mbox_fetch
                0x0000000000005130       0x52 /tmp/ccq02Fbv.o
                0x0000000000005130                sys_arch_mbox_fetch
 .text.sys_sem_new
                0x0000000000005182       0x44 /tmp/ccq02Fbv.o
                0x0000000000005182                sys_sem_new
 .text.sys_arch_sem_wait
                0x00000000000051c6       0x42 /tmp/ccq02Fbv.o
                0x00000000000051c6                sys_arch_sem_wait
 .text.sys_mutex_new
                0x0000000000005208       0x16 /tmp/ccq02Fbv.o
                0x0000000000005208                sys_mutex_new
 .text.sys_mutex_lock
                0x000000000000521e       0x14 /tmp/ccq02Fbv.o
                0x000000000000521e                sys_mutex_lock
 .text.sys_sem_signal
                0x0000000000005232        0xc /tmp/ccq02Fbv.o
                0x0000000000005232                sys_sem_signal
 .text.sys_mutex_unlock
                0x000000000000523e        0x4 /tmp/ccq02Fbv.o
                0x000000000000523e                sys_mutex_unlock
 .text.sys_sem_free
                0x0000000000005242        0x6 /tmp/ccq02Fbv.o
                0x0000000000005242                sys_sem_free
 .text.sys_init
                0x0000000000005248        0x2 /tmp/ccq02Fbv.o
                0x0000000000005248                sys_init
 .text.sys_now  0x000000000000524a        0x4 /tmp/ccq02Fbv.o
                0x000000000000524a                sys_now
 .text.sys_thread_new
                0x000000000000524e       0x26 /tmp/ccq02Fbv.o
                0x000000000000524e                sys_thread_new
 .text.sys_arch_protect
                0x0000000000005274       0x26 /tmp/ccq02Fbv.o
                0x0000000000005274                sys_arch_protect
 .text.sys_arch_unprotect
                0x000000000000529a       0x10 /tmp/ccq02Fbv.o
                0x000000000000529a                sys_arch_unprotect
 .text.netifapi_do_netif_add
                0x00000000000052aa       0x26 /tmp/ccuzO6rl.o
 .text.netifapi_do_netif_common
                0x00000000000052d0       0x1a /tmp/ccuzO6rl.o
 *fill*         0x00000000000052ea        0x2 
 .text.netifapi_netif_add
                0x00000000000052ec       0x40 /tmp/ccuzO6rl.o
                0x00000000000052ec                netifapi_netif_add
 .text.netifapi_netif_common
                0x000000000000532c       0x1c /tmp/ccuzO6rl.o
                0x000000000000532c                netifapi_netif_common
 .text.tcpip_thread
                0x0000000000005348       0xb8 /tmp/cc2f07iE.o
 .text.tcpip_inpkt
                0x0000000000005400       0x48 /tmp/cc2f07iE.o
                0x0000000000005400                tcpip_inpkt
 .text.tcpip_input
                0x0000000000005448       0x1c /tmp/cc2f07iE.o
                0x0000000000005448                tcpip_input
 .text.tcpip_api_call
                0x0000000000005464       0x24 /tmp/cc2f07iE.o
                0x0000000000005464                tcpip_api_call
 .text.tcpip_init
                0x0000000000005488       0x68 /tmp/cc2f07iE.o
                0x0000000000005488                tcpip_init
 .text.lwip_htons
                0x00000000000054f0        0x6 /tmp/ccO6ZU8h.o
                0x00000000000054f0                lwip_htons
 .text.lwip_htonl
                0x00000000000054f6        0x4 /tmp/ccO6ZU8h.o
                0x00000000000054f6                lwip_htonl
 .text.lwip_standard_chksum
                0x00000000000054fa       0x60 /tmp/cc2H0S6C.o
                0x00000000000054fa                lwip_standard_chksum
 .text.inet_chksum_pseudo
                0x000000000000555a       0x8e /tmp/cc2H0S6C.o
                0x000000000000555a                inet_chksum_pseudo
 .text.ip_chksum_pseudo
                0x00000000000055e8        0x4 /tmp/cc2H0S6C.o
                0x00000000000055e8                ip_chksum_pseudo
 .text.inet_chksum
                0x00000000000055ec        0xc /tmp/cc2H0S6C.o
                0x00000000000055ec                inet_chksum
 .text.inet_chksum_pbuf
                0x00000000000055f8       0x44 /tmp/cc2H0S6C.o
                0x00000000000055f8                inet_chksum_pbuf
 .text.lwip_init
                0x000000000000563c       0x22 /tmp/ccsKxQTN.o
                0x000000000000563c                lwip_init
 .text.dhcp_set_state
                0x000000000000565e       0x10 /tmp/ccPPFMTl.o
 *fill*         0x000000000000566e        0x2 
 .text.dhcp_option_short
                0x0000000000005670       0x28 /tmp/ccPPFMTl.o
 .text.dhcp_option
                0x0000000000005698       0x2c /tmp/ccPPFMTl.o
 .text.dhcp_option_long
                0x00000000000056c4       0x38 /tmp/ccPPFMTl.o
 .text.dhcp_option_trailer
                0x00000000000056fc       0x28 /tmp/ccPPFMTl.o
 .text.dhcp_check
                0x0000000000005724       0x2a /tmp/ccPPFMTl.o
 *fill*         0x000000000000574e        0x2 
 .text.dhcp_bind
                0x0000000000005750       0xe8 /tmp/ccPPFMTl.o
 .text.dhcp_inc_pcb_refcount
                0x0000000000005838       0x64 /tmp/ccPPFMTl.o
 .text.unlikely.dhcp_handle_ack.isra.0
                0x000000000000589c       0x68 /tmp/ccPPFMTl.o
 .text.dhcp_dec_pcb_refcount
                0x0000000000005904       0x30 /tmp/ccPPFMTl.o
 .text.dhcp_create_msg
                0x0000000000005934      0x104 /tmp/ccPPFMTl.o
 .text.dhcp_select
                0x0000000000005a38      0x178 /tmp/ccPPFMTl.o
 .text.dhcp_reboot
                0x0000000000005bb0      0x120 /tmp/ccPPFMTl.o
 .text.dhcp_discover
                0x0000000000005cd0      0x104 /tmp/ccPPFMTl.o
 .text.dhcp_recv
                0x0000000000005dd4      0x384 /tmp/ccPPFMTl.o
 .text.dhcp_arp_reply
                0x0000000000006158       0xb0 /tmp/ccPPFMTl.o
                0x0000000000006158                dhcp_arp_reply
 .text.dhcp_renew
                0x0000000000006208       0xfc /tmp/ccPPFMTl.o
                0x0000000000006208                dhcp_renew
 .text.dhcp_supplied_address
                0x0000000000006304       0x1c /tmp/ccPPFMTl.o
                0x0000000000006304                dhcp_supplied_address
 .text.dhcp_release_and_stop
                0x0000000000006320       0xc0 /tmp/ccPPFMTl.o
                0x0000000000006320                dhcp_release_and_stop
 .text.dhcp_start
                0x00000000000063e0       0x94 /tmp/ccPPFMTl.o
                0x00000000000063e0                dhcp_start
 .text.dhcp_coarse_tmr
                0x0000000000006474      0x190 /tmp/ccPPFMTl.o
                0x0000000000006474                dhcp_coarse_tmr
 .text.dhcp_fine_tmr
                0x0000000000006604       0x80 /tmp/ccPPFMTl.o
                0x0000000000006604                dhcp_fine_tmr
 .text.etharp_free_entry
                0x0000000000006684       0x3c /tmp/ccVeZHiy.o
 .text.etharp_find_entry
                0x00000000000066c0      0x120 /tmp/ccVeZHiy.o
 .text.etharp_raw
                0x00000000000067e0       0xc4 /tmp/ccVeZHiy.o
 .text.etharp_input
                0x00000000000068a4      0x144 /tmp/ccVeZHiy.o
                0x00000000000068a4                etharp_input
 .text.etharp_request
                0x00000000000069e8       0x2c /tmp/ccVeZHiy.o
                0x00000000000069e8                etharp_request
 .text.etharp_tmr
                0x0000000000006a14       0x54 /tmp/ccVeZHiy.o
                0x0000000000006a14                etharp_tmr
 .text.etharp_output_to_arp_index
                0x0000000000006a68       0xa8 /tmp/ccVeZHiy.o
 .text.etharp_query
                0x0000000000006b10      0x134 /tmp/ccVeZHiy.o
                0x0000000000006b10                etharp_query
 .text.etharp_output
                0x0000000000006c44      0x118 /tmp/ccVeZHiy.o
                0x0000000000006c44                etharp_output
 .text.icmp_send_response.isra.0
                0x0000000000006d5c       0x90 /tmp/cc2WF5UK.o
 .text.icmp_input
                0x0000000000006dec      0x148 /tmp/cc2WF5UK.o
                0x0000000000006dec                icmp_input
 .text.icmp_dest_unreach
                0x0000000000006f34        0xa /tmp/cc2WF5UK.o
                0x0000000000006f34                icmp_dest_unreach
 .text.icmp_time_exceeded
                0x0000000000006f3e        0xa /tmp/cc2WF5UK.o
                0x0000000000006f3e                icmp_time_exceeded
 .text.ip4_input_accept
                0x0000000000006f48       0x34 /tmp/cccTnILa.o
 .text.ip4_route
                0x0000000000006f7c       0x5c /tmp/cccTnILa.o
                0x0000000000006f7c                ip4_route
 .text.ip4_input
                0x0000000000006fd8      0x18c /tmp/cccTnILa.o
                0x0000000000006fd8                ip4_input
 .text.ip4_output_if_src
                0x0000000000007164      0x118 /tmp/cccTnILa.o
                0x0000000000007164                ip4_output_if_src
 .text.ip4_output_if
                0x000000000000727c       0x22 /tmp/cccTnILa.o
                0x000000000000727c                ip4_output_if
 .text.ip4_addr_isbroadcast_u32
                0x000000000000729e       0x32 /tmp/ccSBBS7n.o
                0x000000000000729e                ip4_addr_isbroadcast_u32
 .text.ip4addr_ntoa_r
                0x00000000000072d0       0x92 /tmp/ccSBBS7n.o
                0x00000000000072d0                ip4addr_ntoa_r
 *fill*         0x0000000000007362        0x2 
 .text.ip4addr_ntoa
                0x0000000000007364        0xc /tmp/ccSBBS7n.o
                0x0000000000007364                ip4addr_ntoa
 .text.ip_reass_dequeue_datagram
                0x0000000000007370       0x34 /tmp/ccxU5cRB.o
 .text.ip_reass_free_complete_datagram
                0x00000000000073a4       0xb4 /tmp/ccxU5cRB.o
 .text.ip_reass_remove_oldest_datagram
                0x0000000000007458       0x78 /tmp/ccxU5cRB.o
 .text.ipfrag_free_pbuf_custom
                0x00000000000074d0       0x24 /tmp/ccxU5cRB.o
 .text.ip_reass_tmr
                0x00000000000074f4       0x28 /tmp/ccxU5cRB.o
                0x00000000000074f4                ip_reass_tmr
 .text.ip4_reass
                0x000000000000751c      0x338 /tmp/ccxU5cRB.o
                0x000000000000751c                ip4_reass
 .text.ip4_frag
                0x0000000000007854      0x1a8 /tmp/ccxU5cRB.o
                0x0000000000007854                ip4_frag
 .text.mem_init
                0x00000000000079fc       0x58 /tmp/cclUbfvX.o
                0x00000000000079fc                mem_init
 .text.mem_free
                0x0000000000007a54      0x170 /tmp/cclUbfvX.o
                0x0000000000007a54                mem_free
 .text.mem_trim
                0x0000000000007bc4      0x134 /tmp/cclUbfvX.o
                0x0000000000007bc4                mem_trim
 .text.mem_malloc
                0x0000000000007cf8      0x12c /tmp/cclUbfvX.o
                0x0000000000007cf8                mem_malloc
 .text.do_memp_malloc_pool.isra.0
                0x0000000000007e24       0x2c /tmp/ccenC76c.o
 .text.do_memp_free_pool.isra.1
                0x0000000000007e50       0x28 /tmp/ccenC76c.o
 .text.memp_init_pool
                0x0000000000007e78       0x26 /tmp/ccenC76c.o
                0x0000000000007e78                memp_init_pool
 *fill*         0x0000000000007e9e        0x2 
 .text.memp_init
                0x0000000000007ea0       0x1c /tmp/ccenC76c.o
                0x0000000000007ea0                memp_init
 .text.memp_malloc
                0x0000000000007ebc       0x28 /tmp/ccenC76c.o
                0x0000000000007ebc                memp_malloc
 .text.memp_free
                0x0000000000007ee4       0x24 /tmp/ccenC76c.o
                0x0000000000007ee4                memp_free
 .text.netif_null_output_ip4
                0x0000000000007f08        0x6 /tmp/ccXVCA4s.o
 *fill*         0x0000000000007f0e        0x2 
 .text.netif_issue_reports
                0x0000000000007f10       0x38 /tmp/ccXVCA4s.o
 .text.netif_do_set_ipaddr
                0x0000000000007f48       0x54 /tmp/ccXVCA4s.o
 .text.netif_init
                0x0000000000007f9c        0x2 /tmp/ccXVCA4s.o
                0x0000000000007f9c                netif_init
 *fill*         0x0000000000007f9e        0x2 
 .text.netif_set_addr
                0x0000000000007fa0       0x58 /tmp/ccXVCA4s.o
                0x0000000000007fa0                netif_set_addr
 .text.netif_add
                0x0000000000007ff8      0x118 /tmp/ccXVCA4s.o
                0x0000000000007ff8                netif_add
 .text.netif_set_default
                0x0000000000008110        0xc /tmp/ccXVCA4s.o
                0x0000000000008110                netif_set_default
 .text.netif_set_up
                0x000000000000811c       0x24 /tmp/ccXVCA4s.o
                0x000000000000811c                netif_set_up
 .text.netif_get_by_index
                0x0000000000008140       0x20 /tmp/ccXVCA4s.o
                0x0000000000008140                netif_get_by_index
 .text.pbuf_add_header_impl
                0x0000000000008160       0x54 /tmp/ccrkHFyJ.o
 .text.pbuf_alloc_reference
                0x00000000000081b4       0x38 /tmp/ccrkHFyJ.o
                0x00000000000081b4                pbuf_alloc_reference
 .text.pbuf_alloced_custom
                0x00000000000081ec       0x36 /tmp/ccrkHFyJ.o
                0x00000000000081ec                pbuf_alloced_custom
 .text.pbuf_add_header
                0x0000000000008222        0x6 /tmp/ccrkHFyJ.o
                0x0000000000008222                pbuf_add_header
 .text.pbuf_remove_header
                0x0000000000008228       0x40 /tmp/ccrkHFyJ.o
                0x0000000000008228                pbuf_remove_header
 .text.pbuf_header_force
                0x0000000000008268       0x10 /tmp/ccrkHFyJ.o
                0x0000000000008268                pbuf_header_force
 .text.pbuf_free
                0x0000000000008278       0xa4 /tmp/ccrkHFyJ.o
                0x0000000000008278                pbuf_free
 .text.pbuf_alloc
                0x000000000000831c       0xf8 /tmp/ccrkHFyJ.o
                0x000000000000831c                pbuf_alloc
 .text.pbuf_realloc
                0x0000000000008414       0x84 /tmp/ccrkHFyJ.o
                0x0000000000008414                pbuf_realloc
 .text.pbuf_clen
                0x0000000000008498       0x10 /tmp/ccrkHFyJ.o
                0x0000000000008498                pbuf_clen
 .text.pbuf_ref
                0x00000000000084a8       0x28 /tmp/ccrkHFyJ.o
                0x00000000000084a8                pbuf_ref
 .text.pbuf_cat
                0x00000000000084d0       0x54 /tmp/ccrkHFyJ.o
                0x00000000000084d0                pbuf_cat
 .text.pbuf_chain
                0x0000000000008524       0x12 /tmp/ccrkHFyJ.o
                0x0000000000008524                pbuf_chain
 *fill*         0x0000000000008536        0x2 
 .text.pbuf_copy
                0x0000000000008538       0xd0 /tmp/ccrkHFyJ.o
                0x0000000000008538                pbuf_copy
 .text.pbuf_copy_partial
                0x0000000000008608       0x74 /tmp/ccrkHFyJ.o
                0x0000000000008608                pbuf_copy_partial
 .text.pbuf_clone
                0x000000000000867c       0x28 /tmp/ccrkHFyJ.o
                0x000000000000867c                pbuf_clone
 .text.sys_msleep
                0x00000000000086a4       0x22 /tmp/ccxh9cUx.o
                0x00000000000086a4                sys_msleep
 .text.tcp_init
                0x00000000000086c6        0x2 /tmp/ccztIRDP.o
                0x00000000000086c6                tcp_init
 .text.tcp_free
                0x00000000000086c8       0x20 /tmp/ccztIRDP.o
                0x00000000000086c8                tcp_free
 .text.tcp_backlog_accepted
                0x00000000000086e8       0x3c /tmp/ccztIRDP.o
                0x00000000000086e8                tcp_backlog_accepted
 .text.tcp_close_shutdown_fin
                0x0000000000008724       0x64 /tmp/ccztIRDP.o
 .text.tcp_update_rcv_ann_wnd
                0x0000000000008788       0x54 /tmp/ccztIRDP.o
                0x0000000000008788                tcp_update_rcv_ann_wnd
 .text.tcp_recved
                0x00000000000087dc       0x60 /tmp/ccztIRDP.o
                0x00000000000087dc                tcp_recved
 .text.tcp_seg_free
                0x000000000000883c       0x1c /tmp/ccztIRDP.o
                0x000000000000883c                tcp_seg_free
 .text.tcp_segs_free
                0x0000000000008858       0x10 /tmp/ccztIRDP.o
                0x0000000000008858                tcp_segs_free
 .text.tcp_pcb_purge
                0x0000000000008868       0x4c /tmp/ccztIRDP.o
                0x0000000000008868                tcp_pcb_purge
 .text.tcp_slowtmr
                0x00000000000088b4      0x3dc /tmp/ccztIRDP.o
                0x00000000000088b4                tcp_slowtmr
 .text.tcp_pcb_remove
                0x0000000000008c90       0x8c /tmp/ccztIRDP.o
                0x0000000000008c90                tcp_pcb_remove
 .text.tcp_close_shutdown
                0x0000000000008d1c      0x144 /tmp/ccztIRDP.o
 .text.tcp_close
                0x0000000000008e60       0x2c /tmp/ccztIRDP.o
                0x0000000000008e60                tcp_close
 .text.tcp_recv_null
                0x0000000000008e8c       0x38 /tmp/ccztIRDP.o
                0x0000000000008e8c                tcp_recv_null
 .text.tcp_process_refused_data
                0x0000000000008ec4       0x7c /tmp/ccztIRDP.o
                0x0000000000008ec4                tcp_process_refused_data
 .text.tcp_fasttmr
                0x0000000000008f40       0x80 /tmp/ccztIRDP.o
                0x0000000000008f40                tcp_fasttmr
 .text.tcp_tmr  0x0000000000008fc0       0x24 /tmp/ccztIRDP.o
                0x0000000000008fc0                tcp_tmr
 .text.tcp_abandon
                0x0000000000008fe4       0xec /tmp/ccztIRDP.o
                0x0000000000008fe4                tcp_abandon
 .text.tcp_abort
                0x00000000000090d0        0x6 /tmp/ccztIRDP.o
                0x00000000000090d0                tcp_abort
 *fill*         0x00000000000090d6        0x2 
 .text.tcp_netif_ip_addr_changed_pcblist
                0x00000000000090d8       0x2c /tmp/ccztIRDP.o
 .text.tcp_kill_state
                0x0000000000009104       0x50 /tmp/ccztIRDP.o
 .text.tcp_alloc
                0x0000000000009154      0x138 /tmp/ccztIRDP.o
                0x0000000000009154                tcp_alloc
 .text.tcp_next_iss
                0x000000000000928c       0x24 /tmp/ccztIRDP.o
                0x000000000000928c                tcp_next_iss
 .text.tcp_eff_send_mss_netif
                0x00000000000092b0       0x2c /tmp/ccztIRDP.o
                0x00000000000092b0                tcp_eff_send_mss_netif
 .text.tcp_netif_ip_addr_changed
                0x00000000000092dc       0x48 /tmp/ccztIRDP.o
                0x00000000000092dc                tcp_netif_ip_addr_changed
 .text.tcp_get_next_optbyte
                0x0000000000009324       0x38 /tmp/cctafV97.o
 .text.tcp_parseopt
                0x000000000000935c       0x88 /tmp/cctafV97.o
 .text.unlikely.tcp_input_delayed_close
                0x00000000000093e4       0x48 /tmp/cctafV97.o
 .text.tcp_free_acked_segments.isra.2
                0x000000000000942c       0xa0 /tmp/cctafV97.o
 .text.tcp_receive
                0x00000000000094cc      0x498 /tmp/cctafV97.o
 .text.tcp_input
                0x0000000000009964      0xa8c /tmp/cctafV97.o
                0x0000000000009964                tcp_input
 .text.tcp_trigger_input_pcb_close
                0x000000000000a3f0       0x10 /tmp/cctafV97.o
                0x000000000000a3f0                tcp_trigger_input_pcb_close
 .text.tcp_output_segment_busy
                0x000000000000a400       0x20 /tmp/ccBB9Csr.o
 .text.tcp_create_segment
                0x000000000000a420       0xe0 /tmp/ccBB9Csr.o
 .text.tcp_output_alloc_header_common.constprop.3
                0x000000000000a500       0x74 /tmp/ccBB9Csr.o
 .text.tcp_output_alloc_header.constprop.2
                0x000000000000a574       0x3c /tmp/ccBB9Csr.o
 .text.tcp_output_fill_options.isra.0.constprop.4
                0x000000000000a5b0       0x10 /tmp/ccBB9Csr.o
 .text.tcp_output_control_segment
                0x000000000000a5c0       0x94 /tmp/ccBB9Csr.o
 .text.tcp_split_unsent_seg
                0x000000000000a654      0x16c /tmp/ccBB9Csr.o
                0x000000000000a654                tcp_split_unsent_seg
 .text.tcp_enqueue_flags
                0x000000000000a7c0      0x104 /tmp/ccBB9Csr.o
                0x000000000000a7c0                tcp_enqueue_flags
 .text.tcp_send_fin
                0x000000000000a8c4       0x50 /tmp/ccBB9Csr.o
                0x000000000000a8c4                tcp_send_fin
 .text.tcp_rexmit_rto_prepare
                0x000000000000a914       0x80 /tmp/ccBB9Csr.o
                0x000000000000a914                tcp_rexmit_rto_prepare
 .text.tcp_rexmit
                0x000000000000a994       0x74 /tmp/ccBB9Csr.o
                0x000000000000a994                tcp_rexmit
 .text.tcp_rexmit_fast
                0x000000000000aa08       0x60 /tmp/ccBB9Csr.o
                0x000000000000aa08                tcp_rexmit_fast
 .text.tcp_rst  0x000000000000aa68       0x70 /tmp/ccBB9Csr.o
                0x000000000000aa68                tcp_rst
 .text.tcp_send_empty_ack
                0x000000000000aad8       0x54 /tmp/ccBB9Csr.o
                0x000000000000aad8                tcp_send_empty_ack
 .text.tcp_output
                0x000000000000ab2c      0x338 /tmp/ccBB9Csr.o
                0x000000000000ab2c                tcp_output
 .text.tcp_rexmit_rto_commit
                0x000000000000ae64       0x28 /tmp/ccBB9Csr.o
                0x000000000000ae64                tcp_rexmit_rto_commit
 .text.tcp_rexmit_rto
                0x000000000000ae8c       0x24 /tmp/ccBB9Csr.o
                0x000000000000ae8c                tcp_rexmit_rto
 .text.tcp_keepalive
                0x000000000000aeb0       0x40 /tmp/ccBB9Csr.o
                0x000000000000aeb0                tcp_keepalive
 .text.tcp_zero_window_probe
                0x000000000000aef0       0xb8 /tmp/ccBB9Csr.o
                0x000000000000aef0                tcp_zero_window_probe
 .text.sys_timeout_abs
                0x000000000000afa8       0x58 /tmp/ccsWcM1K.o
 .text.lwip_cyclic_timer
                0x000000000000b000       0x34 /tmp/ccsWcM1K.o
 .text.sys_timeout
                0x000000000000b034       0x2c /tmp/ccsWcM1K.o
                0x000000000000b034                sys_timeout
 .text.tcp_timer_needed
                0x000000000000b060       0x34 /tmp/ccsWcM1K.o
                0x000000000000b060                tcp_timer_needed
 .text.tcpip_tcp_timer
                0x000000000000b094       0x38 /tmp/ccsWcM1K.o
 .text.sys_timeouts_init
                0x000000000000b0cc       0x4c /tmp/ccsWcM1K.o
                0x000000000000b0cc                sys_timeouts_init
 .text.sys_check_timeouts
                0x000000000000b118       0x44 /tmp/ccsWcM1K.o
                0x000000000000b118                sys_check_timeouts
 .text.sys_timeouts_sleeptime
                0x000000000000b15c       0x24 /tmp/ccsWcM1K.o
                0x000000000000b15c                sys_timeouts_sleeptime
 .text.udp_init
                0x000000000000b180        0x2 /tmp/cc9lNNY4.o
                0x000000000000b180                udp_init
 *fill*         0x000000000000b182        0x2 
 .text.udp_input
                0x000000000000b184      0x1ac /tmp/cc9lNNY4.o
                0x000000000000b184                udp_input
 .text.udp_bind
                0x000000000000b330       0xbc /tmp/cc9lNNY4.o
                0x000000000000b330                udp_bind
 .text.udp_sendto_if_src
                0x000000000000b3ec      0x128 /tmp/cc9lNNY4.o
                0x000000000000b3ec                udp_sendto_if_src
 .text.udp_sendto_if
                0x000000000000b514       0x60 /tmp/cc9lNNY4.o
                0x000000000000b514                udp_sendto_if
 .text.udp_connect
                0x000000000000b574       0x60 /tmp/cc9lNNY4.o
                0x000000000000b574                udp_connect
 .text.udp_recv
                0x000000000000b5d4       0x14 /tmp/cc9lNNY4.o
                0x000000000000b5d4                udp_recv
 .text.udp_remove
                0x000000000000b5e8       0x3c /tmp/cc9lNNY4.o
                0x000000000000b5e8                udp_remove
 .text.udp_new  0x000000000000b624       0x1c /tmp/cc9lNNY4.o
                0x000000000000b624                udp_new
 .text.udp_netif_ip_addr_changed
                0x000000000000b640       0x2c /tmp/cc9lNNY4.o
                0x000000000000b640                udp_netif_ip_addr_changed
 .text.ethernet_input
                0x000000000000b66c       0xa0 /tmp/cchnibZ3.o
                0x000000000000b66c                ethernet_input
 .text.ethernet_output
                0x000000000000b70c       0x60 /tmp/cchnibZ3.o
                0x000000000000b70c                ethernet_output
 .text._sbrk    0x000000000000b76c       0x38 /tmp/ccOvwWJw.o
                0x000000000000b76c                _sbrk
 *(.rodata)
 .rodata        0x000000000000b7a4        0xc /tmp/ccYMvnVx.o
 .rodata        0x000000000000b7b0        0x4 /usr/lib/gcc/arm-none-eabi/6.3.1/../../../arm-none-eabi/lib/thumb/v7e-m/fpv4-sp/hard/libc_nano.a(lib_a-impure.o)
                0x000000000000b7b0                _global_impure_ptr
 *(.rodata*)
 .rodata.dhcp_init.str1.1
                0x000000000000b7b4       0x74 /tmp/ccYMvnVx.o
                                         0xa7 (size before relaxing)
 .rodata.main.str1.1
                0x000000000000b828        0x7 /tmp/ccYMvnVx.o
 .rodata.print_dhcp_state.str1.1
                0x000000000000b82f       0xc3 /tmp/ccYMvnVx.o
                                         0xca (size before relaxing)
 .rodata.mcgConfig_BOARD_BootClockRUN
                0x000000000000b8f2        0xb /tmp/ccmZbr0p.o
                0x000000000000b8f2                mcgConfig_BOARD_BootClockRUN
 *fill*         0x000000000000b8fd        0x3 
 .rodata.oscConfig_BOARD_BootClockRUN
                0x000000000000b900        0x8 /tmp/ccmZbr0p.o
                0x000000000000b900                oscConfig_BOARD_BootClockRUN
 .rodata.simConfig_BOARD_BootClockRUN
                0x000000000000b908        0x8 /tmp/ccmZbr0p.o
                0x000000000000b908                simConfig_BOARD_BootClockRUN
 .rodata.ethernetif_enet_init.str1.1
                0x000000000000b910       0x1b /tmp/cc70xeHl.o
 .rodata.ethernetif_linkoutput.str1.1
                0x000000000000b92b       0x1b /tmp/cc70xeHl.o
 .rodata.fllFactorTable.8080
                0x000000000000b946       0x10 /tmp/ccqptAyi.o
 *fill*         0x000000000000b956        0x2 
 .rodata.s_enetClock
                0x000000000000b958        0x4 /tmp/ccsQreMh.o
                0x000000000000b958                s_enetClock
 .rodata.vTaskStartScheduler.str1.1
                0x000000000000b95c        0x5 /tmp/ccsSVoQh.o
 .rodata.prvCheckForValidListAndQueue.str1.1
                0x000000000000b961        0x5 /tmp/ccP58Erj.o
 .rodata.xTimerCreateTimerTask.str1.1
                0x000000000000b966        0x8 /tmp/ccP58Erj.o
 *fill*         0x000000000000b96e        0x2 
 .rodata.s_uartBases
                0x000000000000b970       0x18 /tmp/ccib2XaG.o
 .rodata.s_uartClock
                0x000000000000b988       0x18 /tmp/ccib2XaG.o
 .rodata.s_UartAdapterBase
                0x000000000000b9a0       0x18 /tmp/ccSzkrFT.o
 .rodata.ethernetif_init.str1.1
                0x000000000000b9b8       0x42 /tmp/ccfiTncp.o
 .rodata.ethernetif_input.str1.1
                0x000000000000b9fa       0x42 /tmp/ccfiTncp.o
                                          0xe (size before relaxing)
 .rodata.ethernetif_phy_init.str1.1
                0x000000000000b9fa       0x8d /tmp/ccfiTncp.o
                                         0x90 (size before relaxing)
 .rodata.sys_assert.str1.1
                0x000000000000ba87        0x3 /tmp/ccq02Fbv.o
 .rodata.tcpip_init.str1.1
                0x000000000000ba8a       0x51 /tmp/cc2f07iE.o
 .rodata.tcpip_inpkt.str1.1
                0x000000000000badb        0xd /tmp/cc2f07iE.o
 .rodata.tcpip_thread.str1.1
                0x000000000000bae8       0x1e /tmp/cc2f07iE.o
 .rodata.dhcp_bind.str1.1
                0x000000000000bb06       0x31 /tmp/ccPPFMTl.o
 .rodata.dhcp_create_msg.str1.1
                0x000000000000bb37       0x7d /tmp/ccPPFMTl.o
 .rodata.dhcp_dec_pcb_refcount.str1.1
                0x000000000000bbb4       0x24 /tmp/ccPPFMTl.o
 .rodata.dhcp_discover_request_options
                0x000000000000bbd8        0x3 /tmp/ccPPFMTl.o
 .rodata.dhcp_inc_pcb_refcount.str1.1
                0x000000000000bbdb       0x25 /tmp/ccPPFMTl.o
 .rodata.dhcp_option.str1.1
                0x000000000000bc00       0x42 /tmp/ccPPFMTl.o
 .rodata.dhcp_option_long.str1.1
                0x000000000000bc42       0x3a /tmp/ccPPFMTl.o
 .rodata.dhcp_option_short.str1.1
                0x000000000000bc7c       0x3b /tmp/ccPPFMTl.o
 .rodata.dhcp_recv.str1.1
                0x000000000000bcb7       0x72 /tmp/ccPPFMTl.o
 .rodata.dhcp_select.str1.1
                0x000000000000bd29       0x6a /tmp/ccPPFMTl.o
 .rodata.dhcp_set_struct.str1.1
                0x000000000000bd93       0x24 /tmp/ccPPFMTl.o
                                         0x3f (size before relaxing)
 .rodata.dhcp_start.str1.1
                0x000000000000bdb7       0x21 /tmp/ccPPFMTl.o
 .rodata.etharp_find_entry.str1.1
                0x000000000000bdd8       0x40 /tmp/ccVeZHiy.o
 .rodata.etharp_get_entry.str1.1
                0x000000000000be18       0x1f /tmp/ccVeZHiy.o
 .rodata.etharp_input.str1.1
                0x000000000000be37       0x24 /tmp/ccVeZHiy.o
 .rodata.etharp_output.str1.1
                0x000000000000be5b       0x24 /tmp/ccVeZHiy.o
                                          0xa (size before relaxing)
 .rodata.etharp_output_to_arp_index.str1.1
                0x000000000000be5b       0x30 /tmp/ccVeZHiy.o
 .rodata.etharp_query.str1.1
                0x000000000000be8b       0x50 /tmp/ccVeZHiy.o
 .rodata.etharp_raw.str1.1
                0x000000000000bedb       0x72 /tmp/ccVeZHiy.o
                                         0x80 (size before relaxing)
 .rodata.icmp_input.str1.1
                0x000000000000bf4d       0x67 /tmp/cc2WF5UK.o
 .rodata.icmp_send_response.isra.0.str1.1
                0x000000000000bfb4       0x2c /tmp/cc2WF5UK.o
 .rodata.ip4_output_if_src.str1.1
                0x000000000000bfe0       0x39 /tmp/cccTnILa.o
 *fill*         0x000000000000c019        0x3 
 .rodata.ip_addr_any
                0x000000000000c01c        0x4 /tmp/ccSBBS7n.o
                0x000000000000c01c                ip_addr_any
 .rodata.ip_addr_broadcast
                0x000000000000c020        0x4 /tmp/ccSBBS7n.o
                0x000000000000c020                ip_addr_broadcast
 .rodata.ip4_frag.str1.1
                0x000000000000c024       0x4a /tmp/ccxU5cRB.o
 .rodata.ip4_reass.str1.1
                0x000000000000c06e       0xbf /tmp/ccxU5cRB.o
 .rodata.ip_reass_dequeue_datagram.str1.1
                0x000000000000c12d       0x19 /tmp/ccxU5cRB.o
 .rodata.ip_reass_free_complete_datagram.str1.1
                0x000000000000c146       0x5d /tmp/ccxU5cRB.o
 .rodata.ipfrag_free_pbuf_custom.str1.1
                0x000000000000c1a3        0xc /tmp/ccxU5cRB.o
 .rodata.mem_free.str1.1
                0x000000000000c1af      0x108 /tmp/cclUbfvX.o
 .rodata.mem_init.str1.1
                0x000000000000c2b7       0x1b /tmp/cclUbfvX.o
 .rodata.mem_malloc.str1.1
                0x000000000000c2d2       0x9b /tmp/cclUbfvX.o
 .rodata.mem_trim.str1.1
                0x000000000000c36d       0x48 /tmp/cclUbfvX.o
 .rodata.do_memp_free_pool.isra.1.str1.1
                0x000000000000c3b5       0x20 /tmp/ccenC76c.o
 .rodata.do_memp_malloc_pool.isra.0.str1.1
                0x000000000000c3d5       0x23 /tmp/ccenC76c.o
 .rodata.memp_FRAG_PBUF
                0x000000000000c3f8       0x10 /tmp/ccenC76c.o
                0x000000000000c3f8                memp_FRAG_PBUF
 .rodata.memp_NETBUF
                0x000000000000c408       0x10 /tmp/ccenC76c.o
                0x000000000000c408                memp_NETBUF
 .rodata.memp_NETCONN
                0x000000000000c418       0x10 /tmp/ccenC76c.o
                0x000000000000c418                memp_NETCONN
 .rodata.memp_PBUF
                0x000000000000c428       0x10 /tmp/ccenC76c.o
                0x000000000000c428                memp_PBUF
 .rodata.memp_PBUF_POOL
                0x000000000000c438       0x10 /tmp/ccenC76c.o
                0x000000000000c438                memp_PBUF_POOL
 .rodata.memp_REASSDATA
                0x000000000000c448       0x10 /tmp/ccenC76c.o
                0x000000000000c448                memp_REASSDATA
 .rodata.memp_SYS_TIMEOUT
                0x000000000000c458       0x10 /tmp/ccenC76c.o
                0x000000000000c458                memp_SYS_TIMEOUT
 .rodata.memp_TCPIP_MSG_API
                0x000000000000c468       0x10 /tmp/ccenC76c.o
                0x000000000000c468                memp_TCPIP_MSG_API
 .rodata.memp_TCPIP_MSG_INPKT
                0x000000000000c478       0x10 /tmp/ccenC76c.o
                0x000000000000c478                memp_TCPIP_MSG_INPKT
 .rodata.memp_TCP_PCB
                0x000000000000c488       0x10 /tmp/ccenC76c.o
                0x000000000000c488                memp_TCP_PCB
 .rodata.memp_TCP_PCB_LISTEN
                0x000000000000c498       0x10 /tmp/ccenC76c.o
                0x000000000000c498                memp_TCP_PCB_LISTEN
 .rodata.memp_TCP_SEG
                0x000000000000c4a8       0x10 /tmp/ccenC76c.o
                0x000000000000c4a8                memp_TCP_SEG
 .rodata.memp_UDP_PCB
                0x000000000000c4b8       0x10 /tmp/ccenC76c.o
                0x000000000000c4b8                memp_UDP_PCB
 .rodata.memp_free.str1.1
                0x000000000000c4c8       0x1b /tmp/ccenC76c.o
 .rodata.memp_malloc.str1.1
                0x000000000000c4e3       0x1d /tmp/ccenC76c.o
 .rodata.memp_pools
                0x000000000000c500       0x34 /tmp/ccenC76c.o
                0x000000000000c500                memp_pools
 .rodata.str1.1
                0x000000000000c534       0x8b /tmp/ccenC76c.o
 .rodata.netif_add.str1.1
                0x000000000000c5bf       0x7d /tmp/ccXVCA4s.o
 .rodata.netif_do_set_ipaddr.str1.1
                0x000000000000c63c       0x10 /tmp/ccXVCA4s.o
 .rodata.netif_issue_reports.str1.1
                0x000000000000c64c       0x23 /tmp/ccXVCA4s.o
 .rodata.netif_set_up.str1.1
                0x000000000000c66f       0x1c /tmp/ccXVCA4s.o
 .rodata.pbuf_add_header_impl.str1.1
                0x000000000000c68b       0x1c /tmp/ccrkHFyJ.o
                                          0xa (size before relaxing)
 .rodata.pbuf_alloc.str1.1
                0x000000000000c68b       0x1b /tmp/ccrkHFyJ.o
 .rodata.pbuf_alloc_reference.str1.1
                0x000000000000c6a6       0x12 /tmp/ccrkHFyJ.o
 .rodata.pbuf_cat.str1.1
                0x000000000000c6b8       0x72 /tmp/ccrkHFyJ.o
 .rodata.pbuf_clone.str1.1
                0x000000000000c72a       0x11 /tmp/ccrkHFyJ.o
 .rodata.pbuf_copy.str1.1
                0x000000000000c73b       0x99 /tmp/ccrkHFyJ.o
 .rodata.pbuf_copy_partial.str1.1
                0x000000000000c7d4       0x42 /tmp/ccrkHFyJ.o
 .rodata.pbuf_free.str1.1
                0x000000000000c816       0x49 /tmp/ccrkHFyJ.o
 .rodata.pbuf_realloc.str1.1
                0x000000000000c85f       0x4c /tmp/ccrkHFyJ.o
 .rodata.pbuf_ref.str1.1
                0x000000000000c8ab       0x12 /tmp/ccrkHFyJ.o
 .rodata.pbuf_remove_header.str1.1
                0x000000000000c8bd       0x1e /tmp/ccrkHFyJ.o
 .rodata.tcp_abandon.str1.1
                0x000000000000c8db       0x4a /tmp/ccztIRDP.o
 .rodata.tcp_backlog_delayed.str1.1
                0x000000000000c925       0x21 /tmp/ccztIRDP.o
 .rodata.tcp_backoff
                0x000000000000c946        0xd /tmp/ccztIRDP.o
 .rodata.tcp_close.str1.1
                0x000000000000c953       0x17 /tmp/ccztIRDP.o
 .rodata.tcp_close_shutdown.str1.1
                0x000000000000c96a       0x52 /tmp/ccztIRDP.o
 .rodata.tcp_eff_send_mss_netif.str1.1
                0x000000000000c9bc       0x27 /tmp/ccztIRDP.o
 .rodata.tcp_free.str1.1
                0x000000000000c9e3       0x11 /tmp/ccztIRDP.o
 .rodata.tcp_kill_state.str1.1
                0x000000000000c9f4        0xe /tmp/ccztIRDP.o
 .rodata.tcp_netif_ip_addr_changed_pcblist.str1.1
                0x000000000000ca02       0x34 /tmp/ccztIRDP.o
 .rodata.tcp_next_iss.str1.1
                0x000000000000ca36       0x1a /tmp/ccztIRDP.o
 .rodata.tcp_pcb_lists
                0x000000000000ca50       0x10 /tmp/ccztIRDP.o
                0x000000000000ca50                tcp_pcb_lists
 .rodata.tcp_pcb_purge.str1.1
                0x000000000000ca60       0x1b /tmp/ccztIRDP.o
 .rodata.tcp_pcb_remove.str1.1
                0x000000000000ca7b       0x6d /tmp/ccztIRDP.o
 .rodata.tcp_persist_backoff
                0x000000000000cae8        0x7 /tmp/ccztIRDP.o
 .rodata.tcp_process_refused_data.str1.1
                0x000000000000caef       0x26 /tmp/ccztIRDP.o
 .rodata.tcp_recv_null.str1.1
                0x000000000000cb15       0x1b /tmp/ccztIRDP.o
 .rodata.tcp_recved.str1.1
                0x000000000000cb30       0x3e /tmp/ccztIRDP.o
 .rodata.tcp_slowtmr.str1.1
                0x000000000000cb6e      0x1b9 /tmp/ccztIRDP.o
 .rodata.tcp_update_rcv_ann_wnd.str1.1
                0x000000000000cd27       0x3e /tmp/ccztIRDP.o
 .rodata.tcp_free_acked_segments.isra.2.str1.1
                0x000000000000cd65       0x48 /tmp/cctafV97.o
 .rodata.tcp_input.str1.1
                0x000000000000cdad      0x1ce /tmp/cctafV97.o
 .rodata.tcp_input_delayed_close.str1.1
                0x000000000000cf7b       0x25 /tmp/cctafV97.o
 .rodata.tcp_parseopt.str1.1
                0x000000000000cfa0       0x1a /tmp/cctafV97.o
 .rodata.tcp_receive.str1.1
                0x000000000000cfba       0xb7 /tmp/cctafV97.o
 .rodata.tcp_create_segment.str1.1
                0x000000000000d071       0x56 /tmp/ccBB9Csr.o
 .rodata.tcp_enqueue_flags.str1.1
                0x000000000000d0c7      0x117 /tmp/ccBB9Csr.o
 .rodata.tcp_keepalive.str1.1
                0x000000000000d1de       0x1b /tmp/ccBB9Csr.o
 .rodata.tcp_output.str1.1
                0x000000000000d1f9       0x68 /tmp/ccBB9Csr.o
 .rodata.tcp_output_alloc_header.constprop.2.str1.1
                0x000000000000d261       0x25 /tmp/ccBB9Csr.o
 .rodata.tcp_output_alloc_header_common.constprop.3.str1.1
                0x000000000000d286       0x2e /tmp/ccBB9Csr.o
 .rodata.tcp_output_control_segment.str1.1
                0x000000000000d2b4       0x29 /tmp/ccBB9Csr.o
 .rodata.tcp_output_fill_options.isra.0.constprop.4.str1.1
                0x000000000000d2dd       0x26 /tmp/ccBB9Csr.o
 .rodata.tcp_output_segment_busy.str1.1
                0x000000000000d303       0x25 /tmp/ccBB9Csr.o
 .rodata.tcp_rexmit.str1.1
                0x000000000000d328       0x18 /tmp/ccBB9Csr.o
 .rodata.tcp_rexmit_fast.str1.1
                0x000000000000d340       0x1d /tmp/ccBB9Csr.o
 .rodata.tcp_rexmit_rto.str1.1
                0x000000000000d35d       0x1c /tmp/ccBB9Csr.o
 .rodata.tcp_rexmit_rto_commit.str1.1
                0x000000000000d379       0x23 /tmp/ccBB9Csr.o
 .rodata.tcp_rexmit_rto_prepare.str1.1
                0x000000000000d39c       0x24 /tmp/ccBB9Csr.o
 .rodata.tcp_rst.str1.1
                0x000000000000d3c0       0x35 /tmp/ccBB9Csr.o
 .rodata.tcp_send_empty_ack.str1.1
                0x000000000000d3f5       0x20 /tmp/ccBB9Csr.o
 .rodata.tcp_send_fin.str1.1
                0x000000000000d415       0x1a /tmp/ccBB9Csr.o
 .rodata.tcp_split_unsent_seg.str1.1
                0x000000000000d42f       0x5f /tmp/ccBB9Csr.o
 .rodata.tcp_zero_window_probe.str1.1
                0x000000000000d48e       0x23 /tmp/ccBB9Csr.o
 *fill*         0x000000000000d4b1        0x3 
 .rodata.lwip_cyclic_timers
                0x000000000000d4b4       0x28 /tmp/ccsWcM1K.o
                0x000000000000d4b4                lwip_cyclic_timers
 .rodata.sys_timeout.str1.1
                0x000000000000d4dc       0x36 /tmp/ccsWcM1K.o
 .rodata.sys_timeout_abs.str1.1
                0x000000000000d512       0x3d /tmp/ccsWcM1K.o
 .rodata.udp_bind.str1.1
                0x000000000000d54f       0x16 /tmp/cc9lNNY4.o
 .rodata.udp_connect.str1.1
                0x000000000000d565       0x35 /tmp/cc9lNNY4.o
 .rodata.udp_input.str1.1
                0x000000000000d59a       0x71 /tmp/cc9lNNY4.o
 .rodata.udp_recv.str1.1
                0x000000000000d60b       0x16 /tmp/cc9lNNY4.o
 .rodata.udp_remove.str1.1
                0x000000000000d621       0x18 /tmp/cc9lNNY4.o
 .rodata.udp_sendto_if.str1.1
                0x000000000000d639       0x72 /tmp/cc9lNNY4.o
 .rodata.udp_sendto_if_src.str1.1
                0x000000000000d6ab       0xd2 /tmp/cc9lNNY4.o
 .rodata.ethbroadcast
                0x000000000000d77d        0x6 /tmp/cchnibZ3.o
                0x000000000000d77d                ethbroadcast
 .rodata.ethernet_output.str1.1
                0x000000000000d783       0x31 /tmp/cchnibZ3.o
 .rodata.ethzero
                0x000000000000d7b4        0x6 /tmp/cchnibZ3.o
                0x000000000000d7b4                ethzero
 *fill*         0x000000000000d7ba        0x2 
 .rodata.str1.4
                0x000000000000d7bc        0x4 /usr/lib/gcc/arm-none-eabi/6.3.1/../../../arm-none-eabi/lib/thumb/v7e-m/fpv4-sp/hard/libc_nano.a(lib_a-impure.o)
                                          0x2 (size before relaxing)
 *(.glue_7)
 .glue_7        0x000000000000d7c0        0x0 linker stubs
 *(.glue_7t)
 .glue_7t       0x000000000000d7c0        0x0 linker stubs
 *(.eh_frame)
 .eh_frame      0x000000000000d7c0        0x0 /usr/lib/gcc/arm-none-eabi/6.3.1/thumb/v7e-m/fpv4-sp/hard/crtbegin.o
 *(.init)
 .init          0x000000000000d7c0        0x4 /usr/lib/gcc/arm-none-eabi/6.3.1/thumb/v7e-m/fpv4-sp/hard/crti.o
                0x000000000000d7c0                _init
 .init          0x000000000000d7c4        0x8 /usr/lib/gcc/arm-none-eabi/6.3.1/thumb/v7e-m/fpv4-sp/hard/crtn.o
 *(.fini)
 .fini          0x000000000000d7cc        0x4 /usr/lib/gcc/arm-none-eabi/6.3.1/thumb/v7e-m/fpv4-sp/hard/crti.o
                0x000000000000d7cc                _fini
 .fini          0x000000000000d7d0        0x8 /usr/lib/gcc/arm-none-eabi/6.3.1/thumb/v7e-m/fpv4-sp/hard/crtn.o
                0x000000000000d7d8                . = ALIGN (0x4)

.vfp11_veneer   0x000000000000d7d8        0x0
 .vfp11_veneer  0x000000000000d7d8        0x0 linker stubs

.v4_bx          0x000000000000d7d8        0x0
 .v4_bx         0x000000000000d7d8        0x0 linker stubs

.iplt           0x000000000000d7d8        0x0
 .iplt          0x000000000000d7d8        0x0 /usr/lib/gcc/arm-none-eabi/6.3.1/thumb/v7e-m/fpv4-sp/hard/crtbegin.o

.ARM.extab
 *(.ARM.extab* .gnu.linkonce.armextab.*)

.ARM            0x000000000000d7d8        0x8
                0x000000000000d7d8                __exidx_start = .
 *(.ARM.exidx*)
 .ARM.exidx     0x000000000000d7d8        0x8 /usr/lib/gcc/arm-none-eabi/6.3.1/../../../arm-none-eabi/lib/thumb/v7e-m/fpv4-sp/hard/crt0.o
 .ARM.exidx     0x000000000000d7e0        0x0 /usr/lib/gcc/arm-none-eabi/6.3.1/thumb/v7e-m/fpv4-sp/hard/libgcc.a(_udivmoddi4.o)
                                          0x8 (size before relaxing)
                0x000000000000d7e0                __exidx_end = .

.rel.dyn        0x000000000000d7e0        0x0
 .rel.iplt      0x000000000000d7e0        0x0 /usr/lib/gcc/arm-none-eabi/6.3.1/thumb/v7e-m/fpv4-sp/hard/crtbegin.o

.ctors          0x000000000000d7e0        0x0
                0x000000000000d7e0                __CTOR_LIST__ = .
 *crtbegin.o(.ctors)
 *crtbegin?.o(.ctors)
 *(EXCLUDE_FILE(*crtend.o *crtend?.o) .ctors)
 *(SORT(.ctors.*))
 *(.ctors)
                0x000000000000d7e0                __CTOR_END__ = .

.dtors          0x000000000000d7e0        0x0
                0x000000000000d7e0                __DTOR_LIST__ = .
 *crtbegin.o(.dtors)
 *crtbegin?.o(.dtors)
 *(EXCLUDE_FILE(*crtend.o *crtend?.o) .dtors)
 *(SORT(.dtors.*))
 *(.dtors)
                0x000000000000d7e0                __DTOR_END__ = .

.preinit_array  0x000000000000d7e0        0x0
                0x000000000000d7e0                PROVIDE (__preinit_array_start, .)
 *(.preinit_array*)
                0x000000000000d7e0                PROVIDE (__preinit_array_end, .)

.init_array     0x000000000000d7e0        0x4
                0x000000000000d7e0                PROVIDE (__init_array_start, .)
 *(SORT(.init_array.*))
 *(.init_array*)
 .init_array    0x000000000000d7e0        0x4 /usr/lib/gcc/arm-none-eabi/6.3.1/thumb/v7e-m/fpv4-sp/hard/crtbegin.o
                0x000000000000d7e4                PROVIDE (__init_array_end, .)

.fini_array     0x000000000000d7e4        0x4
                0x000000000000d7e4                PROVIDE (__fini_array_start, .)
 *(SORT(.fini_array.*))
 *(.fini_array*)
 .fini_array    0x000000000000d7e4        0x4 /usr/lib/gcc/arm-none-eabi/6.3.1/thumb/v7e-m/fpv4-sp/hard/crtbegin.o
                0x000000000000d7e8                PROVIDE (__fini_array_end, .)
                0x000000000000d7e8                __etext = .
                0x000000000000d7e8                __DATA_ROM = .

.data           0x000000001fff0000       0x84 load address 0x000000000000d7e8
                0x000000001fff0000                . = ALIGN (0x4)
                0x000000001fff0000                __DATA_RAM = .
                0x000000001fff0000                __data_start__ = .
 *(.data)
 .data          0x000000001fff0000       0x64 /usr/lib/gcc/arm-none-eabi/6.3.1/../../../arm-none-eabi/lib/thumb/v7e-m/fpv4-sp/hard/libc_nano.a(lib_a-impure.o)
                0x000000001fff0000                _impure_ptr
 *(.data*)
 .data.s_fastIrcFreq
                0x000000001fff0064        0x4 /tmp/ccqptAyi.o
 .data.s_slowIrcFreq
                0x000000001fff0068        0x4 /tmp/ccqptAyi.o
 .data.uxCriticalNesting
                0x000000001fff006c        0x4 /tmp/ccADnpPf.o
 .data.SystemCoreClock
                0x000000001fff0070        0x4 /tmp/ccJOMn0O.o
                0x000000001fff0070                SystemCoreClock
 .data.xid.9696
                0x000000001fff0074        0x4 /tmp/ccPPFMTl.o
 .data.iss.9723
                0x000000001fff0078        0x4 /tmp/ccztIRDP.o
 .data.udp_port
                0x000000001fff007c        0x2 /tmp/cc9lNNY4.o
 *(.jcr*)
 *fill*         0x000000001fff007e        0x2 
 .jcr           0x000000001fff0080        0x0 /usr/lib/gcc/arm-none-eabi/6.3.1/thumb/v7e-m/fpv4-sp/hard/crtbegin.o
 .jcr           0x000000001fff0080        0x4 /usr/lib/gcc/arm-none-eabi/6.3.1/thumb/v7e-m/fpv4-sp/hard/crtend.o
                0x000000001fff0084                . = ALIGN (0x4)
                0x000000001fff0084                __data_end__ = .
                0x000000000000d86c                __DATA_END = (__DATA_ROM + (__data_end__ - __data_start__))
                0x0000000000100000                text_end = (ORIGIN (m_text) + LENGTH (m_text))
                0x0000000000000001                ASSERT ((__DATA_END <= text_end), region m_text overflowed with text and data)

.tm_clone_table
                0x000000001fff0084        0x0 load address 0x000000000000d86c
 .tm_clone_table
                0x000000001fff0084        0x0 /usr/lib/gcc/arm-none-eabi/6.3.1/thumb/v7e-m/fpv4-sp/hard/crtbegin.o
 .tm_clone_table
                0x000000001fff0084        0x0 /usr/lib/gcc/arm-none-eabi/6.3.1/thumb/v7e-m/fpv4-sp/hard/crtend.o

.igot.plt       0x000000001fff0084        0x0 load address 0x000000000000d86c
 .igot.plt      0x000000001fff0084        0x0 /usr/lib/gcc/arm-none-eabi/6.3.1/thumb/v7e-m/fpv4-sp/hard/crtbegin.o

.bss            0x000000001fff0090     0xd8a4 load address 0x000000000000d880
                0x000000001fff0090                . = ALIGN (0x4)
                0x000000001fff0090                __START_BSS = .
                0x000000001fff0090                __bss_start__ = .
 *(.bss)
 .bss           0x000000001fff0090       0x1c /usr/lib/gcc/arm-none-eabi/6.3.1/thumb/v7e-m/fpv4-sp/hard/crtbegin.o
 .bss           0x000000001fff00ac        0x8 /usr/lib/gcc/arm-none-eabi/6.3.1/../../../arm-none-eabi/lib/thumb/v7e-m/fpv4-sp/hard/libc_nano.a(lib_a-nano-mallocr.o)
                0x000000001fff00ac                __malloc_free_list
                0x000000001fff00b0                __malloc_sbrk_start
 .bss           0x000000001fff00b4       0x8c /usr/lib/gcc/arm-none-eabi/6.3.1/../../../arm-none-eabi/lib/thumb/v7e-m/fpv4-sp/hard/libc_nano.a(lib_a-__atexit.o)
 .bss           0x000000001fff0140        0x4 /usr/lib/gcc/arm-none-eabi/6.3.1/../../../arm-none-eabi/lib/thumb/v7e-m/fpv4-sp/hard/libc_nano.a(lib_a-__call_atexit.o)
                0x000000001fff0140                _global_atexit
 *(.bss*)
 .bss.fsl_netif0.10103
                0x000000001fff0144       0x34 /tmp/ccYMvnVx.o
 .bss.ethernetif_0.9580
                0x000000001fff0178       0x40 /tmp/cc70xeHl.o
 *fill*         0x000000001fff01b8        0x8 
 .bss.rxBuffDescrip_0.9581
                0x000000001fff01c0       0x28 /tmp/cc70xeHl.o
 *fill*         0x000000001fff01e8        0x8 
 .bss.rxDataBuff_0.9583
                0x000000001fff01f0     0x1db0 /tmp/cc70xeHl.o
 .bss.txBuffDescrip_0.9582
                0x000000001fff1fa0       0x18 /tmp/cc70xeHl.o
 *fill*         0x000000001fff1fb8        0x8 
 .bss.txDataBuff_0.9584
                0x000000001fff1fc0     0x11d0 /tmp/cc70xeHl.o
 .bss.ucBuffer.9541
                0x000000001fff3190      0x5ee /tmp/cc70xeHl.o
 *fill*         0x000000001fff377e        0x2 
 .bss.g_xtal0Freq
                0x000000001fff3780        0x4 /tmp/ccqptAyi.o
                0x000000001fff3780                g_xtal0Freq
 .bss.g_xtal32Freq
                0x000000001fff3784        0x4 /tmp/ccqptAyi.o
                0x000000001fff3784                g_xtal32Freq
 .bss.s_ENETHandle
                0x000000001fff3788        0x4 /tmp/ccsQreMh.o
 .bss.s_enetErrIsr
                0x000000001fff378c        0x4 /tmp/ccsQreMh.o
 .bss.s_enetRxIsr
                0x000000001fff3790        0x4 /tmp/ccsQreMh.o
 .bss.s_enetTxIsr
                0x000000001fff3794        0x4 /tmp/ccsQreMh.o
 .bss.ucMaxSysCallPriority
                0x000000001fff3798        0x1 /tmp/ccADnpPf.o
 *fill*         0x000000001fff3799        0x3 
 .bss.ulMaxPRIGROUPValue
                0x000000001fff379c        0x4 /tmp/ccADnpPf.o
 .bss.xQueueRegistry
                0x000000001fff37a0       0x40 /tmp/ccAzOx0f.o
                0x000000001fff37a0                xQueueRegistry
 .bss.pxCurrentTCB
                0x000000001fff37e0        0x4 /tmp/ccsSVoQh.o
                0x000000001fff37e0                pxCurrentTCB
 .bss.pxDelayedTaskList
                0x000000001fff37e4        0x4 /tmp/ccsSVoQh.o
 .bss.pxOverflowDelayedTaskList
                0x000000001fff37e8        0x4 /tmp/ccsSVoQh.o
 .bss.pxReadyTasksLists
                0x000000001fff37ec      0x168 /tmp/ccsSVoQh.o
 .bss.uxCurrentNumberOfTasks
                0x000000001fff3954        0x4 /tmp/ccsSVoQh.o
 .bss.uxDeletedTasksWaitingCleanUp
                0x000000001fff3958        0x4 /tmp/ccsSVoQh.o
 .bss.uxPendedTicks
                0x000000001fff395c        0x4 /tmp/ccsSVoQh.o
 .bss.uxSchedulerSuspended
                0x000000001fff3960        0x4 /tmp/ccsSVoQh.o
 .bss.uxTaskNumber
                0x000000001fff3964        0x4 /tmp/ccsSVoQh.o
 .bss.uxTopReadyPriority
                0x000000001fff3968        0x4 /tmp/ccsSVoQh.o
 .bss.xDelayedTaskList1
                0x000000001fff396c       0x14 /tmp/ccsSVoQh.o
 .bss.xDelayedTaskList2
                0x000000001fff3980       0x14 /tmp/ccsSVoQh.o
 .bss.xIdleTaskHandle
                0x000000001fff3994        0x4 /tmp/ccsSVoQh.o
 .bss.xNextTaskUnblockTime
                0x000000001fff3998        0x4 /tmp/ccsSVoQh.o
 .bss.xNumOfOverflows
                0x000000001fff399c        0x4 /tmp/ccsSVoQh.o
 .bss.xPendingReadyList
                0x000000001fff39a0       0x14 /tmp/ccsSVoQh.o
 .bss.xSchedulerRunning
                0x000000001fff39b4        0x4 /tmp/ccsSVoQh.o
 .bss.xSuspendedTaskList
                0x000000001fff39b8       0x14 /tmp/ccsSVoQh.o
 .bss.xTasksWaitingTermination
                0x000000001fff39cc       0x14 /tmp/ccsSVoQh.o
 .bss.xTickCount
                0x000000001fff39e0        0x4 /tmp/ccsSVoQh.o
 .bss.xYieldPending
                0x000000001fff39e4        0x4 /tmp/ccsSVoQh.o
 .bss.pxCurrentTimerList
                0x000000001fff39e8        0x4 /tmp/ccP58Erj.o
 .bss.pxOverflowTimerList
                0x000000001fff39ec        0x4 /tmp/ccP58Erj.o
 .bss.xActiveTimerList1
                0x000000001fff39f0       0x14 /tmp/ccP58Erj.o
 .bss.xActiveTimerList2
                0x000000001fff3a04       0x14 /tmp/ccP58Erj.o
 .bss.xLastTime.6072
                0x000000001fff3a18        0x4 /tmp/ccP58Erj.o
 .bss.xTimerQueue
                0x000000001fff3a1c        0x4 /tmp/ccP58Erj.o
 .bss.xTimerTaskHandle
                0x000000001fff3a20        0x4 /tmp/ccP58Erj.o
 .bss.g_serialHandle
                0x000000001fff3a24        0x4 /tmp/ccvPAeyy.o
                0x000000001fff3a24                g_serialHandle
 .bss.s_debugConsoleState
                0x000000001fff3a28       0x1c /tmp/ccvPAeyy.o
 .bss.s_uartHandle
                0x000000001fff3a44       0x18 /tmp/ccib2XaG.o
 .bss.s_uartIsr
                0x000000001fff3a5c        0x4 /tmp/ccib2XaG.o
 .bss.errno     0x000000001fff3a60        0x4 /tmp/ccq02Fbv.o
                0x000000001fff3a60                errno
 .bss.lock_tcpip_core
                0x000000001fff3a64        0x4 /tmp/cc2f07iE.o
                0x000000001fff3a64                lock_tcpip_core
 .bss.tcpip_init_done
                0x000000001fff3a68        0x4 /tmp/cc2f07iE.o
 .bss.tcpip_init_done_arg
                0x000000001fff3a6c        0x4 /tmp/cc2f07iE.o
 .bss.tcpip_mbox
                0x000000001fff3a70        0x4 /tmp/cc2f07iE.o
 .bss.ip_data   0x000000001fff3a74       0x18 /tmp/ccQbXjQY.o
                0x000000001fff3a74                ip_data
 .bss.dhcp_pcb  0x000000001fff3a8c        0x4 /tmp/ccPPFMTl.o
 .bss.dhcp_pcb_refcount
                0x000000001fff3a90        0x1 /tmp/ccPPFMTl.o
 .bss.dhcp_rx_options_given
                0x000000001fff3a91        0x8 /tmp/ccPPFMTl.o
                0x000000001fff3a91                dhcp_rx_options_given
 *fill*         0x000000001fff3a99        0x3 
 .bss.dhcp_rx_options_val
                0x000000001fff3a9c       0x20 /tmp/ccPPFMTl.o
                0x000000001fff3a9c                dhcp_rx_options_val
 .bss.arp_table
                0x000000001fff3abc       0xf0 /tmp/ccVeZHiy.o
 .bss.etharp_cached_entry
                0x000000001fff3bac        0x1 /tmp/ccVeZHiy.o
 *fill*         0x000000001fff3bad        0x1 
 .bss.ip_id     0x000000001fff3bae        0x2 /tmp/cccTnILa.o
 .bss.str.9001  0x000000001fff3bb0       0x10 /tmp/ccSBBS7n.o
 .bss.ip_reass_pbufcount
                0x000000001fff3bc0        0x2 /tmp/ccxU5cRB.o
 *fill*         0x000000001fff3bc2        0x2 
 .bss.reassdatagrams
                0x000000001fff3bc4        0x4 /tmp/ccxU5cRB.o
 .bss.lfree     0x000000001fff3bc8        0x4 /tmp/cclUbfvX.o
 .bss.mem_mutex
                0x000000001fff3bcc        0x4 /tmp/cclUbfvX.o
 .bss.ram       0x000000001fff3bd0        0x4 /tmp/cclUbfvX.o
 .bss.ram_end   0x000000001fff3bd4        0x4 /tmp/cclUbfvX.o
 .bss.ram_heap  0x000000001fff3bd8     0x5813 /tmp/cclUbfvX.o
                0x000000001fff3bd8                ram_heap
 .bss.memp_memory_FRAG_PBUF_base
                0x000000001fff93eb      0x16b /tmp/ccenC76c.o
                0x000000001fff93eb                memp_memory_FRAG_PBUF_base
 .bss.memp_memory_NETBUF_base
                0x000000001fff9556       0x23 /tmp/ccenC76c.o
                0x000000001fff9556                memp_memory_NETBUF_base
 .bss.memp_memory_NETCONN_base
                0x000000001fff9579       0xb3 /tmp/ccenC76c.o
                0x000000001fff9579                memp_memory_NETCONN_base
 .bss.memp_memory_PBUF_POOL_base
                0x000000001fff962c     0x35df /tmp/ccenC76c.o
                0x000000001fff962c                memp_memory_PBUF_POOL_base
 .bss.memp_memory_PBUF_base
                0x000000001fffcc0b       0xf3 /tmp/ccenC76c.o
                0x000000001fffcc0b                memp_memory_PBUF_base
 .bss.memp_memory_REASSDATA_base
                0x000000001fffccfe       0xa3 /tmp/ccenC76c.o
                0x000000001fffccfe                memp_memory_REASSDATA_base
 .bss.memp_memory_SYS_TIMEOUT_base
                0x000000001fffcda1       0xa3 /tmp/ccenC76c.o
                0x000000001fffcda1                memp_memory_SYS_TIMEOUT_base
 .bss.memp_memory_TCPIP_MSG_API_base
                0x000000001fffce44       0x83 /tmp/ccenC76c.o
                0x000000001fffce44                memp_memory_TCPIP_MSG_API_base
 .bss.memp_memory_TCPIP_MSG_INPKT_base
                0x000000001fffcec7       0x83 /tmp/ccenC76c.o
                0x000000001fffcec7                memp_memory_TCPIP_MSG_INPKT_base
 .bss.memp_memory_TCP_PCB_LISTEN_base
                0x000000001fffcf4a       0xc3 /tmp/ccenC76c.o
                0x000000001fffcf4a                memp_memory_TCP_PCB_LISTEN_base
 .bss.memp_memory_TCP_PCB_base
                0x000000001fffd00d      0x5f3 /tmp/ccenC76c.o
                0x000000001fffd00d                memp_memory_TCP_PCB_base
 .bss.memp_memory_TCP_SEG_base
                0x000000001fffd600      0x1bb /tmp/ccenC76c.o
                0x000000001fffd600                memp_memory_TCP_SEG_base
 .bss.memp_memory_UDP_PCB_base
                0x000000001fffd7bb       0xc3 /tmp/ccenC76c.o
                0x000000001fffd7bb                memp_memory_UDP_PCB_base
 *fill*         0x000000001fffd87e        0x2 
 .bss.memp_tab_FRAG_PBUF
                0x000000001fffd880        0x4 /tmp/ccenC76c.o
 .bss.memp_tab_NETBUF
                0x000000001fffd884        0x4 /tmp/ccenC76c.o
 .bss.memp_tab_NETCONN
                0x000000001fffd888        0x4 /tmp/ccenC76c.o
 .bss.memp_tab_PBUF
                0x000000001fffd88c        0x4 /tmp/ccenC76c.o
 .bss.memp_tab_PBUF_POOL
                0x000000001fffd890        0x4 /tmp/ccenC76c.o
 .bss.memp_tab_REASSDATA
                0x000000001fffd894        0x4 /tmp/ccenC76c.o
 .bss.memp_tab_SYS_TIMEOUT
                0x000000001fffd898        0x4 /tmp/ccenC76c.o
 .bss.memp_tab_TCPIP_MSG_API
                0x000000001fffd89c        0x4 /tmp/ccenC76c.o
 .bss.memp_tab_TCPIP_MSG_INPKT
                0x000000001fffd8a0        0x4 /tmp/ccenC76c.o
 .bss.memp_tab_TCP_PCB
                0x000000001fffd8a4        0x4 /tmp/ccenC76c.o
 .bss.memp_tab_TCP_PCB_LISTEN
                0x000000001fffd8a8        0x4 /tmp/ccenC76c.o
 .bss.memp_tab_TCP_SEG
                0x000000001fffd8ac        0x4 /tmp/ccenC76c.o
 .bss.memp_tab_UDP_PCB
                0x000000001fffd8b0        0x4 /tmp/ccenC76c.o
 .bss.netif_default
                0x000000001fffd8b4        0x4 /tmp/ccXVCA4s.o
                0x000000001fffd8b4                netif_default
 .bss.netif_list
                0x000000001fffd8b8        0x4 /tmp/ccXVCA4s.o
                0x000000001fffd8b8                netif_list
 .bss.netif_num
                0x000000001fffd8bc        0x1 /tmp/ccXVCA4s.o
 *fill*         0x000000001fffd8bd        0x3 
 .bss.tcp_active_pcbs
                0x000000001fffd8c0        0x4 /tmp/ccztIRDP.o
                0x000000001fffd8c0                tcp_active_pcbs
 .bss.tcp_active_pcbs_changed
                0x000000001fffd8c4        0x1 /tmp/ccztIRDP.o
                0x000000001fffd8c4                tcp_active_pcbs_changed
 *fill*         0x000000001fffd8c5        0x3 
 .bss.tcp_bound_pcbs
                0x000000001fffd8c8        0x4 /tmp/ccztIRDP.o
                0x000000001fffd8c8                tcp_bound_pcbs
 .bss.tcp_listen_pcbs
                0x000000001fffd8cc        0x4 /tmp/ccztIRDP.o
                0x000000001fffd8cc                tcp_listen_pcbs
 .bss.tcp_ticks
                0x000000001fffd8d0        0x4 /tmp/ccztIRDP.o
                0x000000001fffd8d0                tcp_ticks
 .bss.tcp_timer
                0x000000001fffd8d4        0x1 /tmp/ccztIRDP.o
 .bss.tcp_timer_ctr
                0x000000001fffd8d5        0x1 /tmp/ccztIRDP.o
 *fill*         0x000000001fffd8d6        0x2 
 .bss.tcp_tw_pcbs
                0x000000001fffd8d8        0x4 /tmp/ccztIRDP.o
                0x000000001fffd8d8                tcp_tw_pcbs
 .bss.ackno     0x000000001fffd8dc        0x4 /tmp/cctafV97.o
 .bss.flags     0x000000001fffd8e0        0x1 /tmp/cctafV97.o
 *fill*         0x000000001fffd8e1        0x3 
 .bss.inseg     0x000000001fffd8e4       0x14 /tmp/cctafV97.o
 .bss.recv_acked
                0x000000001fffd8f8        0x2 /tmp/cctafV97.o
 *fill*         0x000000001fffd8fa        0x2 
 .bss.recv_data
                0x000000001fffd8fc        0x4 /tmp/cctafV97.o
 .bss.recv_flags
                0x000000001fffd900        0x1 /tmp/cctafV97.o
 *fill*         0x000000001fffd901        0x3 
 .bss.seqno     0x000000001fffd904        0x4 /tmp/cctafV97.o
 .bss.tcp_input_pcb
                0x000000001fffd908        0x4 /tmp/cctafV97.o
                0x000000001fffd908                tcp_input_pcb
 .bss.tcp_optidx
                0x000000001fffd90c        0x2 /tmp/cctafV97.o
 *fill*         0x000000001fffd90e        0x2 
 .bss.tcphdr    0x000000001fffd910        0x4 /tmp/cctafV97.o
 .bss.tcphdr_opt1len
                0x000000001fffd914        0x2 /tmp/cctafV97.o
 *fill*         0x000000001fffd916        0x2 
 .bss.tcphdr_opt2
                0x000000001fffd918        0x4 /tmp/cctafV97.o
 .bss.tcphdr_optlen
                0x000000001fffd91c        0x2 /tmp/cctafV97.o
 .bss.tcplen    0x000000001fffd91e        0x2 /tmp/cctafV97.o
 .bss.current_timeout_due_time
                0x000000001fffd920        0x4 /tmp/ccsWcM1K.o
 .bss.next_timeout
                0x000000001fffd924        0x4 /tmp/ccsWcM1K.o
 .bss.tcpip_tcp_timer_active
                0x000000001fffd928        0x4 /tmp/ccsWcM1K.o
 .bss.udp_pcbs  0x000000001fffd92c        0x4 /tmp/cc9lNNY4.o
                0x000000001fffd92c                udp_pcbs
 .bss.heap_end.5759
                0x000000001fffd930        0x4 /tmp/ccOvwWJw.o
 *(COMMON)
                0x000000001fffd934                . = ALIGN (0x4)
                0x000000001fffd934                __bss_end__ = .
                0x000000001fffd934                __END_BSS = .

.heap           0x0000000020000000     0x6400
                0x0000000020000000                . = ALIGN (0x8)
                0x0000000020000000                __end__ = .
                0x0000000020000000                PROVIDE (end, .)
                0x0000000020000000                __HeapBase = .
                0x0000000020006400                . = (. + HEAP_SIZE)
 *fill*         0x0000000020000000     0x6400 
                0x0000000020006400                __HeapLimit = .
                0x0000000020006400                __heap_limit = .

.stack          0x0000000020006400      0x800
                0x0000000020006400                . = ALIGN (0x8)
                0x0000000020006c00                . = (. + STACK_SIZE)
 *fill*         0x0000000020006400      0x800 
                0x0000000020030000                __StackTop = (ORIGIN (m_data_2) + LENGTH (m_data_2))
                0x000000002002f800                __StackLimit = (__StackTop - STACK_SIZE)
                0x0000000020030000                PROVIDE (__stack, __StackTop)

.ARM.attributes
                0x0000000000000000       0x30
 *(.ARM.attributes)
 .ARM.attributes
                0x0000000000000000       0x22 /usr/lib/gcc/arm-none-eabi/6.3.1/thumb/v7e-m/fpv4-sp/hard/crti.o
 .ARM.attributes
                0x0000000000000022       0x34 /usr/lib/gcc/arm-none-eabi/6.3.1/thumb/v7e-m/fpv4-sp/hard/crtbegin.o
 .ARM.attributes
                0x0000000000000056       0x20 /usr/lib/gcc/arm-none-eabi/6.3.1/../../../arm-none-eabi/lib/thumb/v7e-m/fpv4-sp/hard/crt0.o
 .ARM.attributes
                0x0000000000000076       0x1f /tmp/ccJinnRA.o
 .ARM.attributes
                0x0000000000000095       0x39 /tmp/ccYMvnVx.o
 .ARM.attributes
                0x00000000000000ce       0x39 /tmp/ccmrEU8u.o
 .ARM.attributes
                0x0000000000000107       0x39 /tmp/cccGtVus.o
 .ARM.attributes
                0x0000000000000140       0x39 /tmp/ccmZbr0p.o
 .ARM.attributes
                0x0000000000000179       0x39 /tmp/ccr2xbJn.o
 .ARM.attributes
                0x00000000000001b2       0x39 /tmp/cc70xeHl.o
 .ARM.attributes
                0x00000000000001eb       0x39 /tmp/ccqptAyi.o
 .ARM.attributes
                0x0000000000000224       0x39 /tmp/ccsQreMh.o
 .ARM.attributes
                0x000000000000025d       0x39 /tmp/cc5r2u4g.o
 .ARM.attributes
                0x0000000000000296       0x39 /tmp/ccRgE7xg.o
 .ARM.attributes
                0x00000000000002cf       0x39 /tmp/ccUz6o7f.o
 .ARM.attributes
                0x0000000000000308       0x39 /tmp/ccADnpPf.o
 .ARM.attributes
                0x0000000000000341       0x39 /tmp/ccAzOx0f.o
 .ARM.attributes
                0x000000000000037a       0x39 /tmp/ccsSVoQh.o
 .ARM.attributes
                0x00000000000003b3       0x39 /tmp/ccP58Erj.o
 .ARM.attributes
                0x00000000000003ec       0x39 /tmp/ccvPAeyy.o
 .ARM.attributes
                0x0000000000000425       0x39 /tmp/cc6q353B.o
 .ARM.attributes
                0x000000000000045e       0x39 /tmp/ccib2XaG.o
 .ARM.attributes
                0x0000000000000497       0x39 /tmp/ccJOMn0O.o
 .ARM.attributes
                0x00000000000004d0       0x39 /tmp/ccSzkrFT.o
 .ARM.attributes
                0x0000000000000509       0x39 /tmp/ccs41rvY.o
 .ARM.attributes
                0x0000000000000542       0x39 /tmp/cctHzJu3.o
 .ARM.attributes
                0x000000000000057b       0x39 /tmp/ccfiTncp.o
 .ARM.attributes
                0x00000000000005b4       0x39 /tmp/ccq02Fbv.o
 .ARM.attributes
                0x00000000000005ed       0x39 /tmp/ccuzO6rl.o
 .ARM.attributes
                0x0000000000000626       0x39 /tmp/cc2f07iE.o
 .ARM.attributes
                0x000000000000065f       0x39 /tmp/ccO6ZU8h.o
 .ARM.attributes
                0x0000000000000698       0x39 /tmp/cc2H0S6C.o
 .ARM.attributes
                0x00000000000006d1       0x39 /tmp/ccsKxQTN.o
 .ARM.attributes
                0x000000000000070a       0x39 /tmp/ccQbXjQY.o
 .ARM.attributes
                0x0000000000000743       0x39 /tmp/ccPPFMTl.o
 .ARM.attributes
                0x000000000000077c       0x39 /tmp/ccVeZHiy.o
 .ARM.attributes
                0x00000000000007b5       0x39 /tmp/cc2WF5UK.o
 .ARM.attributes
                0x00000000000007ee       0x39 /tmp/cccTnILa.o
 .ARM.attributes
                0x0000000000000827       0x39 /tmp/ccSBBS7n.o
 .ARM.attributes
                0x0000000000000860       0x39 /tmp/ccxU5cRB.o
 .ARM.attributes
                0x0000000000000899       0x39 /tmp/cclUbfvX.o
 .ARM.attributes
                0x00000000000008d2       0x39 /tmp/ccenC76c.o
 .ARM.attributes
                0x000000000000090b       0x39 /tmp/ccXVCA4s.o
 .ARM.attributes
                0x0000000000000944       0x39 /tmp/ccrkHFyJ.o
 .ARM.attributes
                0x000000000000097d       0x39 /tmp/ccxh9cUx.o
 .ARM.attributes
                0x00000000000009b6       0x39 /tmp/ccztIRDP.o
 .ARM.attributes
                0x00000000000009ef       0x39 /tmp/cctafV97.o
 .ARM.attributes
                0x0000000000000a28       0x39 /tmp/ccBB9Csr.o
 .ARM.attributes
                0x0000000000000a61       0x39 /tmp/ccsWcM1K.o
 .ARM.attributes
                0x0000000000000a9a       0x39 /tmp/cc9lNNY4.o
 .ARM.attributes
                0x0000000000000ad3       0x39 /tmp/cchnibZ3.o
 .ARM.attributes
                0x0000000000000b0c       0x39 /tmp/ccOvwWJw.o
 .ARM.attributes
                0x0000000000000b45       0x22 /usr/lib/gcc/arm-none-eabi/6.3.1/thumb/v7e-m/fpv4-sp/hard/libgcc.a(_aeabi_ldivmod.o)
 .ARM.attributes
                0x0000000000000b67       0x22 /usr/lib/gcc/arm-none-eabi/6.3.1/thumb/v7e-m/fpv4-sp/hard/libgcc.a(_aeabi_uldivmod.o)
 .ARM.attributes
                0x0000000000000b89       0x34 /usr/lib/gcc/arm-none-eabi/6.3.1/thumb/v7e-m/fpv4-sp/hard/libgcc.a(_udivmoddi4.o)
 .ARM.attributes
                0x0000000000000bbd       0x22 /usr/lib/gcc/arm-none-eabi/6.3.1/thumb/v7e-m/fpv4-sp/hard/libgcc.a(_dvmd_tls.o)
 .ARM.attributes
                0x0000000000000bdf       0x34 /usr/lib/gcc/arm-none-eabi/6.3.1/../../../arm-none-eabi/lib/thumb/v7e-m/fpv4-sp/hard/libc_nano.a(lib_a-atexit.o)
 .ARM.attributes
                0x0000000000000c13       0x34 /usr/lib/gcc/arm-none-eabi/6.3.1/../../../arm-none-eabi/lib/thumb/v7e-m/fpv4-sp/hard/libc_nano.a(lib_a-errno.o)
 .ARM.attributes
                0x0000000000000c47       0x34 /usr/lib/gcc/arm-none-eabi/6.3.1/../../../arm-none-eabi/lib/thumb/v7e-m/fpv4-sp/hard/libc_nano.a(lib_a-exit.o)
 .ARM.attributes
                0x0000000000000c7b       0x34 /usr/lib/gcc/arm-none-eabi/6.3.1/../../../arm-none-eabi/lib/thumb/v7e-m/fpv4-sp/hard/libc_nano.a(lib_a-fini.o)
 .ARM.attributes
                0x0000000000000caf       0x34 /usr/lib/gcc/arm-none-eabi/6.3.1/../../../arm-none-eabi/lib/thumb/v7e-m/fpv4-sp/hard/libc_nano.a(lib_a-impure.o)
 .ARM.attributes
                0x0000000000000ce3       0x34 /usr/lib/gcc/arm-none-eabi/6.3.1/../../../arm-none-eabi/lib/thumb/v7e-m/fpv4-sp/hard/libc_nano.a(lib_a-init.o)
 .ARM.attributes
                0x0000000000000d17       0x34 /usr/lib/gcc/arm-none-eabi/6.3.1/../../../arm-none-eabi/lib/thumb/v7e-m/fpv4-sp/hard/libc_nano.a(lib_a-malloc.o)
 .ARM.attributes
                0x0000000000000d4b       0x34 /usr/lib/gcc/arm-none-eabi/6.3.1/../../../arm-none-eabi/lib/thumb/v7e-m/fpv4-sp/hard/libc_nano.a(lib_a-memcmp.o)
 .ARM.attributes
                0x0000000000000d7f       0x20 /usr/lib/gcc/arm-none-eabi/6.3.1/../../../arm-none-eabi/lib/thumb/v7e-m/fpv4-sp/hard/libc_nano.a(lib_a-memcpy.o)
 .ARM.attributes
                0x0000000000000d9f       0x34 /usr/lib/gcc/arm-none-eabi/6.3.1/../../../arm-none-eabi/lib/thumb/v7e-m/fpv4-sp/hard/libc_nano.a(lib_a-memset.o)
 .ARM.attributes
                0x0000000000000dd3       0x34 /usr/lib/gcc/arm-none-eabi/6.3.1/../../../arm-none-eabi/lib/thumb/v7e-m/fpv4-sp/hard/libc_nano.a(lib_a-nano-freer.o)
 .ARM.attributes
                0x0000000000000e07       0x34 /usr/lib/gcc/arm-none-eabi/6.3.1/../../../arm-none-eabi/lib/thumb/v7e-m/fpv4-sp/hard/libc_nano.a(lib_a-nano-mallocr.o)
 .ARM.attributes
                0x0000000000000e3b       0x34 /usr/lib/gcc/arm-none-eabi/6.3.1/../../../arm-none-eabi/lib/thumb/v7e-m/fpv4-sp/hard/libc_nano.a(lib_a-sbrkr.o)
 .ARM.attributes
                0x0000000000000e6f       0x20 /usr/lib/gcc/arm-none-eabi/6.3.1/../../../arm-none-eabi/lib/thumb/v7e-m/fpv4-sp/hard/libc_nano.a(lib_a-strlen.o)
 .ARM.attributes
                0x0000000000000e8f       0x34 /usr/lib/gcc/arm-none-eabi/6.3.1/../../../arm-none-eabi/lib/thumb/v7e-m/fpv4-sp/hard/libc_nano.a(lib_a-__atexit.o)
 .ARM.attributes
                0x0000000000000ec3       0x34 /usr/lib/gcc/arm-none-eabi/6.3.1/../../../arm-none-eabi/lib/thumb/v7e-m/fpv4-sp/hard/libc_nano.a(lib_a-__call_atexit.o)
 .ARM.attributes
                0x0000000000000ef7       0x34 /usr/lib/gcc/arm-none-eabi/6.3.1/../../../arm-none-eabi/lib/thumb/v7e-m/fpv4-sp/hard/libnosys.a(_exit.o)
 .ARM.attributes
                0x0000000000000f2b       0x34 /usr/lib/gcc/arm-none-eabi/6.3.1/thumb/v7e-m/fpv4-sp/hard/crtend.o
 .ARM.attributes
                0x0000000000000f5f       0x22 /usr/lib/gcc/arm-none-eabi/6.3.1/thumb/v7e-m/fpv4-sp/hard/crtn.o
                0x0000000000000001                ASSERT ((__StackLimit >= __HeapLimit), region m_data_2 overflowed with stack and heap)
OUTPUT(analyser.elf elf32-littlearm)

.comment        0x0000000000000000       0x31
 .comment       0x0000000000000000       0x31 /usr/lib/gcc/arm-none-eabi/6.3.1/thumb/v7e-m/fpv4-sp/hard/crtbegin.o
                                         0x32 (size before relaxing)
 .comment       0x0000000000000031       0x32 /tmp/ccYMvnVx.o
 .comment       0x0000000000000031       0x32 /tmp/ccmrEU8u.o
 .comment       0x0000000000000031       0x32 /tmp/cccGtVus.o
 .comment       0x0000000000000031       0x32 /tmp/ccmZbr0p.o
 .comment       0x0000000000000031       0x32 /tmp/ccr2xbJn.o
 .comment       0x0000000000000031       0x32 /tmp/cc70xeHl.o
 .comment       0x0000000000000031       0x32 /tmp/ccqptAyi.o
 .comment       0x0000000000000031       0x32 /tmp/ccsQreMh.o
 .comment       0x0000000000000031       0x32 /tmp/cc5r2u4g.o
 .comment       0x0000000000000031       0x32 /tmp/ccRgE7xg.o
 .comment       0x0000000000000031       0x32 /tmp/ccUz6o7f.o
 .comment       0x0000000000000031       0x32 /tmp/ccADnpPf.o
 .comment       0x0000000000000031       0x32 /tmp/ccAzOx0f.o
 .comment       0x0000000000000031       0x32 /tmp/ccsSVoQh.o
 .comment       0x0000000000000031       0x32 /tmp/ccP58Erj.o
 .comment       0x0000000000000031       0x32 /tmp/ccvPAeyy.o
 .comment       0x0000000000000031       0x32 /tmp/cc6q353B.o
 .comment       0x0000000000000031       0x32 /tmp/ccib2XaG.o
 .comment       0x0000000000000031       0x32 /tmp/ccJOMn0O.o
 .comment       0x0000000000000031       0x32 /tmp/ccSzkrFT.o
 .comment       0x0000000000000031       0x32 /tmp/ccs41rvY.o
 .comment       0x0000000000000031       0x32 /tmp/cctHzJu3.o
 .comment       0x0000000000000031       0x32 /tmp/ccfiTncp.o
 .comment       0x0000000000000031       0x32 /tmp/ccq02Fbv.o
 .comment       0x0000000000000031       0x32 /tmp/ccuzO6rl.o
 .comment       0x0000000000000031       0x32 /tmp/cc2f07iE.o
 .comment       0x0000000000000031       0x32 /tmp/ccO6ZU8h.o
 .comment       0x0000000000000031       0x32 /tmp/cc2H0S6C.o
 .comment       0x0000000000000031       0x32 /tmp/ccsKxQTN.o
 .comment       0x0000000000000031       0x32 /tmp/ccQbXjQY.o
 .comment       0x0000000000000031       0x32 /tmp/ccPPFMTl.o
 .comment       0x0000000000000031       0x32 /tmp/ccVeZHiy.o
 .comment       0x0000000000000031       0x32 /tmp/cc2WF5UK.o
 .comment       0x0000000000000031       0x32 /tmp/cccTnILa.o
 .comment       0x0000000000000031       0x32 /tmp/ccSBBS7n.o
 .comment       0x0000000000000031       0x32 /tmp/ccxU5cRB.o
 .comment       0x0000000000000031       0x32 /tmp/cclUbfvX.o
 .comment       0x0000000000000031       0x32 /tmp/ccenC76c.o
 .comment       0x0000000000000031       0x32 /tmp/ccXVCA4s.o
 .comment       0x0000000000000031       0x32 /tmp/ccrkHFyJ.o
 .comment       0x0000000000000031       0x32 /tmp/ccxh9cUx.o
 .comment       0x0000000000000031       0x32 /tmp/ccztIRDP.o
 .comment       0x0000000000000031       0x32 /tmp/cctafV97.o
 .comment       0x0000000000000031       0x32 /tmp/ccBB9Csr.o
 .comment       0x0000000000000031       0x32 /tmp/ccsWcM1K.o
 .comment       0x0000000000000031       0x32 /tmp/cc9lNNY4.o
 .comment       0x0000000000000031       0x32 /tmp/cchnibZ3.o
 .comment       0x0000000000000031       0x32 /tmp/ccOvwWJw.o
 .comment       0x0000000000000031       0x32 /usr/lib/gcc/arm-none-eabi/6.3.1/thumb/v7e-m/fpv4-sp/hard/libgcc.a(_udivmoddi4.o)
 .comment       0x0000000000000031       0x32 /usr/lib/gcc/arm-none-eabi/6.3.1/../../../arm-none-eabi/lib/thumb/v7e-m/fpv4-sp/hard/libc_nano.a(lib_a-atexit.o)
 .comment       0x0000000000000031       0x32 /usr/lib/gcc/arm-none-eabi/6.3.1/../../../arm-none-eabi/lib/thumb/v7e-m/fpv4-sp/hard/libc_nano.a(lib_a-errno.o)
 .comment       0x0000000000000031       0x32 /usr/lib/gcc/arm-none-eabi/6.3.1/../../../arm-none-eabi/lib/thumb/v7e-m/fpv4-sp/hard/libc_nano.a(lib_a-exit.o)
 .comment       0x0000000000000031       0x32 /usr/lib/gcc/arm-none-eabi/6.3.1/../../../arm-none-eabi/lib/thumb/v7e-m/fpv4-sp/hard/libc_nano.a(lib_a-fini.o)
 .comment       0x0000000000000031       0x32 /usr/lib/gcc/arm-none-eabi/6.3.1/../../../arm-none-eabi/lib/thumb/v7e-m/fpv4-sp/hard/libc_nano.a(lib_a-impure.o)
 .comment       0x0000000000000031       0x32 /usr/lib/gcc/arm-none-eabi/6.3.1/../../../arm-none-eabi/lib/thumb/v7e-m/fpv4-sp/hard/libc_nano.a(lib_a-init.o)
 .comment       0x0000000000000031       0x32 /usr/lib/gcc/arm-none-eabi/6.3.1/../../../arm-none-eabi/lib/thumb/v7e-m/fpv4-sp/hard/libc_nano.a(lib_a-malloc.o)
 .comment       0x0000000000000031       0x32 /usr/lib/gcc/arm-none-eabi/6.3.1/../../../arm-none-eabi/lib/thumb/v7e-m/fpv4-sp/hard/libc_nano.a(lib_a-memcmp.o)
 .comment       0x0000000000000031       0x32 /usr/lib/gcc/arm-none-eabi/6.3.1/../../../arm-none-eabi/lib/thumb/v7e-m/fpv4-sp/hard/libc_nano.a(lib_a-memset.o)
 .comment       0x0000000000000031       0x32 /usr/lib/gcc/arm-none-eabi/6.3.1/../../../arm-none-eabi/lib/thumb/v7e-m/fpv4-sp/hard/libc_nano.a(lib_a-nano-freer.o)
 .comment       0x0000000000000031       0x32 /usr/lib/gcc/arm-none-eabi/6.3.1/../../../arm-none-eabi/lib/thumb/v7e-m/fpv4-sp/hard/libc_nano.a(lib_a-nano-mallocr.o)
 .comment       0x0000000000000031       0x32 /usr/lib/gcc/arm-none-eabi/6.3.1/../../../arm-none-eabi/lib/thumb/v7e-m/fpv4-sp/hard/libc_nano.a(lib_a-sbrkr.o)
 .comment       0x0000000000000031       0x32 /usr/lib/gcc/arm-none-eabi/6.3.1/../../../arm-none-eabi/lib/thumb/v7e-m/fpv4-sp/hard/libc_nano.a(lib_a-__atexit.o)
 .comment       0x0000000000000031       0x32 /usr/lib/gcc/arm-none-eabi/6.3.1/../../../arm-none-eabi/lib/thumb/v7e-m/fpv4-sp/hard/libc_nano.a(lib_a-__call_atexit.o)
 .comment       0x0000000000000031       0x32 /usr/lib/gcc/arm-none-eabi/6.3.1/../../../arm-none-eabi/lib/thumb/v7e-m/fpv4-sp/hard/libnosys.a(_exit.o)
 .comment       0x0000000000000031       0x32 /usr/lib/gcc/arm-none-eabi/6.3.1/thumb/v7e-m/fpv4-sp/hard/crtend.o

.debug_line     0x0000000000000000     0x1811
 .debug_line    0x0000000000000000       0x84 /usr/lib/gcc/arm-none-eabi/6.3.1/../../../arm-none-eabi/lib/thumb/v7e-m/fpv4-sp/hard/crt0.o
 .debug_line    0x0000000000000084       0x85 /usr/lib/gcc/arm-none-eabi/6.3.1/thumb/v7e-m/fpv4-sp/hard/libgcc.a(_aeabi_ldivmod.o)
 .debug_line    0x0000000000000109       0x67 /usr/lib/gcc/arm-none-eabi/6.3.1/thumb/v7e-m/fpv4-sp/hard/libgcc.a(_aeabi_uldivmod.o)
 .debug_line    0x0000000000000170      0x258 /usr/lib/gcc/arm-none-eabi/6.3.1/thumb/v7e-m/fpv4-sp/hard/libgcc.a(_udivmoddi4.o)
 .debug_line    0x00000000000003c8       0x67 /usr/lib/gcc/arm-none-eabi/6.3.1/thumb/v7e-m/fpv4-sp/hard/libgcc.a(_dvmd_tls.o)
 .debug_line    0x000000000000042f      0x157 /usr/lib/gcc/arm-none-eabi/6.3.1/../../../arm-none-eabi/lib/thumb/v7e-m/fpv4-sp/hard/libc_nano.a(lib_a-atexit.o)
 .debug_line    0x0000000000000586      0x10a /usr/lib/gcc/arm-none-eabi/6.3.1/../../../arm-none-eabi/lib/thumb/v7e-m/fpv4-sp/hard/libc_nano.a(lib_a-errno.o)
 .debug_line    0x0000000000000690      0x15b /usr/lib/gcc/arm-none-eabi/6.3.1/../../../arm-none-eabi/lib/thumb/v7e-m/fpv4-sp/hard/libc_nano.a(lib_a-exit.o)
 .debug_line    0x00000000000007eb       0xa5 /usr/lib/gcc/arm-none-eabi/6.3.1/../../../arm-none-eabi/lib/thumb/v7e-m/fpv4-sp/hard/libc_nano.a(lib_a-fini.o)
 .debug_line    0x0000000000000890       0xef /usr/lib/gcc/arm-none-eabi/6.3.1/../../../arm-none-eabi/lib/thumb/v7e-m/fpv4-sp/hard/libc_nano.a(lib_a-impure.o)
 .debug_line    0x000000000000097f       0xbe /usr/lib/gcc/arm-none-eabi/6.3.1/../../../arm-none-eabi/lib/thumb/v7e-m/fpv4-sp/hard/libc_nano.a(lib_a-init.o)
 .debug_line    0x0000000000000a3d      0x15a /usr/lib/gcc/arm-none-eabi/6.3.1/../../../arm-none-eabi/lib/thumb/v7e-m/fpv4-sp/hard/libc_nano.a(lib_a-malloc.o)
 .debug_line    0x0000000000000b97      0x16c /usr/lib/gcc/arm-none-eabi/6.3.1/../../../arm-none-eabi/lib/thumb/v7e-m/fpv4-sp/hard/libc_nano.a(lib_a-memcmp.o)
 .debug_line    0x0000000000000d03       0xc1 /usr/lib/gcc/arm-none-eabi/6.3.1/../../../arm-none-eabi/lib/thumb/v7e-m/fpv4-sp/hard/libc_nano.a(lib_a-memcpy.o)
 .debug_line    0x0000000000000dc4      0x17c /usr/lib/gcc/arm-none-eabi/6.3.1/../../../arm-none-eabi/lib/thumb/v7e-m/fpv4-sp/hard/libc_nano.a(lib_a-memset.o)
 .debug_line    0x0000000000000f40      0x165 /usr/lib/gcc/arm-none-eabi/6.3.1/../../../arm-none-eabi/lib/thumb/v7e-m/fpv4-sp/hard/libc_nano.a(lib_a-nano-freer.o)
 .debug_line    0x00000000000010a5      0x1a8 /usr/lib/gcc/arm-none-eabi/6.3.1/../../../arm-none-eabi/lib/thumb/v7e-m/fpv4-sp/hard/libc_nano.a(lib_a-nano-mallocr.o)
 .debug_line    0x000000000000124d      0x160 /usr/lib/gcc/arm-none-eabi/6.3.1/../../../arm-none-eabi/lib/thumb/v7e-m/fpv4-sp/hard/libc_nano.a(lib_a-sbrkr.o)
 .debug_line    0x00000000000013ad       0xb2 /usr/lib/gcc/arm-none-eabi/6.3.1/../../../arm-none-eabi/lib/thumb/v7e-m/fpv4-sp/hard/libc_nano.a(lib_a-strlen.o)
 .debug_line    0x000000000000145f      0x192 /usr/lib/gcc/arm-none-eabi/6.3.1/../../../arm-none-eabi/lib/thumb/v7e-m/fpv4-sp/hard/libc_nano.a(lib_a-__atexit.o)
 .debug_line    0x00000000000015f1      0x1bf /usr/lib/gcc/arm-none-eabi/6.3.1/../../../arm-none-eabi/lib/thumb/v7e-m/fpv4-sp/hard/libc_nano.a(lib_a-__call_atexit.o)
 .debug_line    0x00000000000017b0       0x61 /usr/lib/gcc/arm-none-eabi/6.3.1/../../../arm-none-eabi/lib/thumb/v7e-m/fpv4-sp/hard/libnosys.a(_exit.o)

.debug_info     0x0000000000000000     0x849e
 .debug_info    0x0000000000000000       0xb7 /usr/lib/gcc/arm-none-eabi/6.3.1/../../../arm-none-eabi/lib/thumb/v7e-m/fpv4-sp/hard/crt0.o
 .debug_info    0x00000000000000b7       0xcf /usr/lib/gcc/arm-none-eabi/6.3.1/thumb/v7e-m/fpv4-sp/hard/libgcc.a(_aeabi_ldivmod.o)
 .debug_info    0x0000000000000186       0xcf /usr/lib/gcc/arm-none-eabi/6.3.1/thumb/v7e-m/fpv4-sp/hard/libgcc.a(_aeabi_uldivmod.o)
 .debug_info    0x0000000000000255      0xc24 /usr/lib/gcc/arm-none-eabi/6.3.1/thumb/v7e-m/fpv4-sp/hard/libgcc.a(_udivmoddi4.o)
 .debug_info    0x0000000000000e79       0xd3 /usr/lib/gcc/arm-none-eabi/6.3.1/thumb/v7e-m/fpv4-sp/hard/libgcc.a(_dvmd_tls.o)
 .debug_info    0x0000000000000f4c      0x902 /usr/lib/gcc/arm-none-eabi/6.3.1/../../../arm-none-eabi/lib/thumb/v7e-m/fpv4-sp/hard/libc_nano.a(lib_a-atexit.o)
 .debug_info    0x000000000000184e      0x8c7 /usr/lib/gcc/arm-none-eabi/6.3.1/../../../arm-none-eabi/lib/thumb/v7e-m/fpv4-sp/hard/libc_nano.a(lib_a-errno.o)
 .debug_info    0x0000000000002115      0x94e /usr/lib/gcc/arm-none-eabi/6.3.1/../../../arm-none-eabi/lib/thumb/v7e-m/fpv4-sp/hard/libc_nano.a(lib_a-exit.o)
 .debug_info    0x0000000000002a63       0xfa /usr/lib/gcc/arm-none-eabi/6.3.1/../../../arm-none-eabi/lib/thumb/v7e-m/fpv4-sp/hard/libc_nano.a(lib_a-fini.o)
 .debug_info    0x0000000000002b5d      0x8a0 /usr/lib/gcc/arm-none-eabi/6.3.1/../../../arm-none-eabi/lib/thumb/v7e-m/fpv4-sp/hard/libc_nano.a(lib_a-impure.o)
 .debug_info    0x00000000000033fd      0x110 /usr/lib/gcc/arm-none-eabi/6.3.1/../../../arm-none-eabi/lib/thumb/v7e-m/fpv4-sp/hard/libc_nano.a(lib_a-init.o)
 .debug_info    0x000000000000350d      0x91d /usr/lib/gcc/arm-none-eabi/6.3.1/../../../arm-none-eabi/lib/thumb/v7e-m/fpv4-sp/hard/libc_nano.a(lib_a-malloc.o)
 .debug_info    0x0000000000003e2a      0x914 /usr/lib/gcc/arm-none-eabi/6.3.1/../../../arm-none-eabi/lib/thumb/v7e-m/fpv4-sp/hard/libc_nano.a(lib_a-memcmp.o)
 .debug_info    0x000000000000473e       0xe1 /usr/lib/gcc/arm-none-eabi/6.3.1/../../../arm-none-eabi/lib/thumb/v7e-m/fpv4-sp/hard/libc_nano.a(lib_a-memcpy.o)
 .debug_info    0x000000000000481f      0x916 /usr/lib/gcc/arm-none-eabi/6.3.1/../../../arm-none-eabi/lib/thumb/v7e-m/fpv4-sp/hard/libc_nano.a(lib_a-memset.o)
 .debug_info    0x0000000000005135      0xa51 /usr/lib/gcc/arm-none-eabi/6.3.1/../../../arm-none-eabi/lib/thumb/v7e-m/fpv4-sp/hard/libc_nano.a(lib_a-nano-freer.o)
 .debug_info    0x0000000000005b86      0xb1f /usr/lib/gcc/arm-none-eabi/6.3.1/../../../arm-none-eabi/lib/thumb/v7e-m/fpv4-sp/hard/libc_nano.a(lib_a-nano-mallocr.o)
 .debug_info    0x00000000000066a5      0x955 /usr/lib/gcc/arm-none-eabi/6.3.1/../../../arm-none-eabi/lib/thumb/v7e-m/fpv4-sp/hard/libc_nano.a(lib_a-sbrkr.o)
 .debug_info    0x0000000000006ffa       0xe0 /usr/lib/gcc/arm-none-eabi/6.3.1/../../../arm-none-eabi/lib/thumb/v7e-m/fpv4-sp/hard/libc_nano.a(lib_a-strlen.o)
 .debug_info    0x00000000000070da      0x9a0 /usr/lib/gcc/arm-none-eabi/6.3.1/../../../arm-none-eabi/lib/thumb/v7e-m/fpv4-sp/hard/libc_nano.a(lib_a-__atexit.o)
 .debug_info    0x0000000000007a7a      0x98a /usr/lib/gcc/arm-none-eabi/6.3.1/../../../arm-none-eabi/lib/thumb/v7e-m/fpv4-sp/hard/libc_nano.a(lib_a-__call_atexit.o)
 .debug_info    0x0000000000008404       0x9a /usr/lib/gcc/arm-none-eabi/6.3.1/../../../arm-none-eabi/lib/thumb/v7e-m/fpv4-sp/hard/libnosys.a(_exit.o)

.debug_abbrev   0x0000000000000000     0x1967
 .debug_abbrev  0x0000000000000000       0x14 /usr/lib/gcc/arm-none-eabi/6.3.1/../../../arm-none-eabi/lib/thumb/v7e-m/fpv4-sp/hard/crt0.o
 .debug_abbrev  0x0000000000000014       0x14 /usr/lib/gcc/arm-none-eabi/6.3.1/thumb/v7e-m/fpv4-sp/hard/libgcc.a(_aeabi_ldivmod.o)
 .debug_abbrev  0x0000000000000028       0x14 /usr/lib/gcc/arm-none-eabi/6.3.1/thumb/v7e-m/fpv4-sp/hard/libgcc.a(_aeabi_uldivmod.o)
 .debug_abbrev  0x000000000000003c      0x18c /usr/lib/gcc/arm-none-eabi/6.3.1/thumb/v7e-m/fpv4-sp/hard/libgcc.a(_udivmoddi4.o)
 .debug_abbrev  0x00000000000001c8       0x14 /usr/lib/gcc/arm-none-eabi/6.3.1/thumb/v7e-m/fpv4-sp/hard/libgcc.a(_dvmd_tls.o)
 .debug_abbrev  0x00000000000001dc      0x1c0 /usr/lib/gcc/arm-none-eabi/6.3.1/../../../arm-none-eabi/lib/thumb/v7e-m/fpv4-sp/hard/libc_nano.a(lib_a-atexit.o)
 .debug_abbrev  0x000000000000039c      0x16f /usr/lib/gcc/arm-none-eabi/6.3.1/../../../arm-none-eabi/lib/thumb/v7e-m/fpv4-sp/hard/libc_nano.a(lib_a-errno.o)
 .debug_abbrev  0x000000000000050b      0x1c4 /usr/lib/gcc/arm-none-eabi/6.3.1/../../../arm-none-eabi/lib/thumb/v7e-m/fpv4-sp/hard/libc_nano.a(lib_a-exit.o)
 .debug_abbrev  0x00000000000006cf       0xbd /usr/lib/gcc/arm-none-eabi/6.3.1/../../../arm-none-eabi/lib/thumb/v7e-m/fpv4-sp/hard/libc_nano.a(lib_a-fini.o)
 .debug_abbrev  0x000000000000078c      0x153 /usr/lib/gcc/arm-none-eabi/6.3.1/../../../arm-none-eabi/lib/thumb/v7e-m/fpv4-sp/hard/libc_nano.a(lib_a-impure.o)
 .debug_abbrev  0x00000000000008df       0xba /usr/lib/gcc/arm-none-eabi/6.3.1/../../../arm-none-eabi/lib/thumb/v7e-m/fpv4-sp/hard/libc_nano.a(lib_a-init.o)
 .debug_abbrev  0x0000000000000999      0x1c0 /usr/lib/gcc/arm-none-eabi/6.3.1/../../../arm-none-eabi/lib/thumb/v7e-m/fpv4-sp/hard/libc_nano.a(lib_a-malloc.o)
 .debug_abbrev  0x0000000000000b59      0x17e /usr/lib/gcc/arm-none-eabi/6.3.1/../../../arm-none-eabi/lib/thumb/v7e-m/fpv4-sp/hard/libc_nano.a(lib_a-memcmp.o)
 .debug_abbrev  0x0000000000000cd7       0x14 /usr/lib/gcc/arm-none-eabi/6.3.1/../../../arm-none-eabi/lib/thumb/v7e-m/fpv4-sp/hard/libc_nano.a(lib_a-memcpy.o)
 .debug_abbrev  0x0000000000000ceb      0x197 /usr/lib/gcc/arm-none-eabi/6.3.1/../../../arm-none-eabi/lib/thumb/v7e-m/fpv4-sp/hard/libc_nano.a(lib_a-memset.o)
 .debug_abbrev  0x0000000000000e82      0x1ef /usr/lib/gcc/arm-none-eabi/6.3.1/../../../arm-none-eabi/lib/thumb/v7e-m/fpv4-sp/hard/libc_nano.a(lib_a-nano-freer.o)
 .debug_abbrev  0x0000000000001071      0x274 /usr/lib/gcc/arm-none-eabi/6.3.1/../../../arm-none-eabi/lib/thumb/v7e-m/fpv4-sp/hard/libc_nano.a(lib_a-nano-mallocr.o)
 .debug_abbrev  0x00000000000012e5      0x1d6 /usr/lib/gcc/arm-none-eabi/6.3.1/../../../arm-none-eabi/lib/thumb/v7e-m/fpv4-sp/hard/libc_nano.a(lib_a-sbrkr.o)
 .debug_abbrev  0x00000000000014bb       0x14 /usr/lib/gcc/arm-none-eabi/6.3.1/../../../arm-none-eabi/lib/thumb/v7e-m/fpv4-sp/hard/libc_nano.a(lib_a-strlen.o)
 .debug_abbrev  0x00000000000014cf      0x227 /usr/lib/gcc/arm-none-eabi/6.3.1/../../../arm-none-eabi/lib/thumb/v7e-m/fpv4-sp/hard/libc_nano.a(lib_a-__atexit.o)
 .debug_abbrev  0x00000000000016f6      0x210 /usr/lib/gcc/arm-none-eabi/6.3.1/../../../arm-none-eabi/lib/thumb/v7e-m/fpv4-sp/hard/libc_nano.a(lib_a-__call_atexit.o)
 .debug_abbrev  0x0000000000001906       0x61 /usr/lib/gcc/arm-none-eabi/6.3.1/../../../arm-none-eabi/lib/thumb/v7e-m/fpv4-sp/hard/libnosys.a(_exit.o)

.debug_aranges  0x0000000000000000      0x2b8
 .debug_aranges
                0x0000000000000000       0x20 /usr/lib/gcc/arm-none-eabi/6.3.1/../../../arm-none-eabi/lib/thumb/v7e-m/fpv4-sp/hard/crt0.o
 .debug_aranges
                0x0000000000000020       0x20 /usr/lib/gcc/arm-none-eabi/6.3.1/thumb/v7e-m/fpv4-sp/hard/libgcc.a(_aeabi_ldivmod.o)
 .debug_aranges
                0x0000000000000040       0x20 /usr/lib/gcc/arm-none-eabi/6.3.1/thumb/v7e-m/fpv4-sp/hard/libgcc.a(_aeabi_uldivmod.o)
 .debug_aranges
                0x0000000000000060       0x20 /usr/lib/gcc/arm-none-eabi/6.3.1/thumb/v7e-m/fpv4-sp/hard/libgcc.a(_udivmoddi4.o)
 .debug_aranges
                0x0000000000000080       0x20 /usr/lib/gcc/arm-none-eabi/6.3.1/thumb/v7e-m/fpv4-sp/hard/libgcc.a(_dvmd_tls.o)
 .debug_aranges
                0x00000000000000a0       0x20 /usr/lib/gcc/arm-none-eabi/6.3.1/../../../arm-none-eabi/lib/thumb/v7e-m/fpv4-sp/hard/libc_nano.a(lib_a-atexit.o)
 .debug_aranges
                0x00000000000000c0       0x20 /usr/lib/gcc/arm-none-eabi/6.3.1/../../../arm-none-eabi/lib/thumb/v7e-m/fpv4-sp/hard/libc_nano.a(lib_a-errno.o)
 .debug_aranges
                0x00000000000000e0       0x20 /usr/lib/gcc/arm-none-eabi/6.3.1/../../../arm-none-eabi/lib/thumb/v7e-m/fpv4-sp/hard/libc_nano.a(lib_a-exit.o)
 .debug_aranges
                0x0000000000000100       0x20 /usr/lib/gcc/arm-none-eabi/6.3.1/../../../arm-none-eabi/lib/thumb/v7e-m/fpv4-sp/hard/libc_nano.a(lib_a-fini.o)
 .debug_aranges
                0x0000000000000120       0x18 /usr/lib/gcc/arm-none-eabi/6.3.1/../../../arm-none-eabi/lib/thumb/v7e-m/fpv4-sp/hard/libc_nano.a(lib_a-impure.o)
 .debug_aranges
                0x0000000000000138       0x20 /usr/lib/gcc/arm-none-eabi/6.3.1/../../../arm-none-eabi/lib/thumb/v7e-m/fpv4-sp/hard/libc_nano.a(lib_a-init.o)
 .debug_aranges
                0x0000000000000158       0x20 /usr/lib/gcc/arm-none-eabi/6.3.1/../../../arm-none-eabi/lib/thumb/v7e-m/fpv4-sp/hard/libc_nano.a(lib_a-malloc.o)
 .debug_aranges
                0x0000000000000178       0x20 /usr/lib/gcc/arm-none-eabi/6.3.1/../../../arm-none-eabi/lib/thumb/v7e-m/fpv4-sp/hard/libc_nano.a(lib_a-memcmp.o)
 .debug_aranges
                0x0000000000000198       0x20 /usr/lib/gcc/arm-none-eabi/6.3.1/../../../arm-none-eabi/lib/thumb/v7e-m/fpv4-sp/hard/libc_nano.a(lib_a-memcpy.o)
 .debug_aranges
                0x00000000000001b8       0x20 /usr/lib/gcc/arm-none-eabi/6.3.1/../../../arm-none-eabi/lib/thumb/v7e-m/fpv4-sp/hard/libc_nano.a(lib_a-memset.o)
 .debug_aranges
                0x00000000000001d8       0x20 /usr/lib/gcc/arm-none-eabi/6.3.1/../../../arm-none-eabi/lib/thumb/v7e-m/fpv4-sp/hard/libc_nano.a(lib_a-nano-freer.o)
 .debug_aranges
                0x00000000000001f8       0x20 /usr/lib/gcc/arm-none-eabi/6.3.1/../../../arm-none-eabi/lib/thumb/v7e-m/fpv4-sp/hard/libc_nano.a(lib_a-nano-mallocr.o)
 .debug_aranges
                0x0000000000000218       0x20 /usr/lib/gcc/arm-none-eabi/6.3.1/../../../arm-none-eabi/lib/thumb/v7e-m/fpv4-sp/hard/libc_nano.a(lib_a-sbrkr.o)
 .debug_aranges
                0x0000000000000238       0x20 /usr/lib/gcc/arm-none-eabi/6.3.1/../../../arm-none-eabi/lib/thumb/v7e-m/fpv4-sp/hard/libc_nano.a(lib_a-strlen.o)
 .debug_aranges
                0x0000000000000258       0x20 /usr/lib/gcc/arm-none-eabi/6.3.1/../../../arm-none-eabi/lib/thumb/v7e-m/fpv4-sp/hard/libc_nano.a(lib_a-__atexit.o)
 .debug_aranges
                0x0000000000000278       0x20 /usr/lib/gcc/arm-none-eabi/6.3.1/../../../arm-none-eabi/lib/thumb/v7e-m/fpv4-sp/hard/libc_nano.a(lib_a-__call_atexit.o)
 .debug_aranges
                0x0000000000000298       0x20 /usr/lib/gcc/arm-none-eabi/6.3.1/../../../arm-none-eabi/lib/thumb/v7e-m/fpv4-sp/hard/libnosys.a(_exit.o)

.debug_frame    0x0000000000000000      0x338
 .debug_frame   0x0000000000000000       0x44 /usr/lib/gcc/arm-none-eabi/6.3.1/thumb/v7e-m/fpv4-sp/hard/libgcc.a(_aeabi_ldivmod.o)
 .debug_frame   0x0000000000000044       0x2c /usr/lib/gcc/arm-none-eabi/6.3.1/thumb/v7e-m/fpv4-sp/hard/libgcc.a(_aeabi_uldivmod.o)
 .debug_frame   0x0000000000000070       0x34 /usr/lib/gcc/arm-none-eabi/6.3.1/thumb/v7e-m/fpv4-sp/hard/libgcc.a(_udivmoddi4.o)
 .debug_frame   0x00000000000000a4       0x20 /usr/lib/gcc/arm-none-eabi/6.3.1/../../../arm-none-eabi/lib/thumb/v7e-m/fpv4-sp/hard/libc_nano.a(lib_a-atexit.o)
 .debug_frame   0x00000000000000c4       0x20 /usr/lib/gcc/arm-none-eabi/6.3.1/../../../arm-none-eabi/lib/thumb/v7e-m/fpv4-sp/hard/libc_nano.a(lib_a-errno.o)
 .debug_frame   0x00000000000000e4       0x28 /usr/lib/gcc/arm-none-eabi/6.3.1/../../../arm-none-eabi/lib/thumb/v7e-m/fpv4-sp/hard/libc_nano.a(lib_a-exit.o)
 .debug_frame   0x000000000000010c       0x34 /usr/lib/gcc/arm-none-eabi/6.3.1/../../../arm-none-eabi/lib/thumb/v7e-m/fpv4-sp/hard/libc_nano.a(lib_a-fini.o)
 .debug_frame   0x0000000000000140       0x2c /usr/lib/gcc/arm-none-eabi/6.3.1/../../../arm-none-eabi/lib/thumb/v7e-m/fpv4-sp/hard/libc_nano.a(lib_a-init.o)
 .debug_frame   0x000000000000016c       0x30 /usr/lib/gcc/arm-none-eabi/6.3.1/../../../arm-none-eabi/lib/thumb/v7e-m/fpv4-sp/hard/libc_nano.a(lib_a-malloc.o)
 .debug_frame   0x000000000000019c       0x3c /usr/lib/gcc/arm-none-eabi/6.3.1/../../../arm-none-eabi/lib/thumb/v7e-m/fpv4-sp/hard/libc_nano.a(lib_a-memcmp.o)
 .debug_frame   0x00000000000001d8       0x34 /usr/lib/gcc/arm-none-eabi/6.3.1/../../../arm-none-eabi/lib/thumb/v7e-m/fpv4-sp/hard/libc_nano.a(lib_a-memset.o)
 .debug_frame   0x000000000000020c       0x40 /usr/lib/gcc/arm-none-eabi/6.3.1/../../../arm-none-eabi/lib/thumb/v7e-m/fpv4-sp/hard/libc_nano.a(lib_a-nano-freer.o)
 .debug_frame   0x000000000000024c       0x2c /usr/lib/gcc/arm-none-eabi/6.3.1/../../../arm-none-eabi/lib/thumb/v7e-m/fpv4-sp/hard/libc_nano.a(lib_a-nano-mallocr.o)
 .debug_frame   0x0000000000000278       0x2c /usr/lib/gcc/arm-none-eabi/6.3.1/../../../arm-none-eabi/lib/thumb/v7e-m/fpv4-sp/hard/libc_nano.a(lib_a-sbrkr.o)
 .debug_frame   0x00000000000002a4       0x34 /usr/lib/gcc/arm-none-eabi/6.3.1/../../../arm-none-eabi/lib/thumb/v7e-m/fpv4-sp/hard/libc_nano.a(lib_a-__atexit.o)
 .debug_frame   0x00000000000002d8       0x40 /usr/lib/gcc/arm-none-eabi/6.3.1/../../../arm-none-eabi/lib/thumb/v7e-m/fpv4-sp/hard/libc_nano.a(lib_a-__call_atexit.o)
 .debug_frame   0x0000000000000318       0x20 /usr/lib/gcc/arm-none-eabi/6.3.1/../../../arm-none-eabi/lib/thumb/v7e-m/fpv4-sp/hard/libnosys.a(_exit.o)

.debug_loc      0x0000000000000000     0x1ada
 .debug_loc     0x0000000000000000      0xd77 /usr/lib/gcc/arm-none-eabi/6.3.1/thumb/v7e-m/fpv4-sp/hard/libgcc.a(_udivmoddi4.o)
 .debug_loc     0x0000000000000d77       0x2c /usr/lib/gcc/arm-none-eabi/6.3.1/../../../arm-none-eabi/lib/thumb/v7e-m/fpv4-sp/hard/libc_nano.a(lib_a-atexit.o)
 .debug_loc     0x0000000000000da3       0x1e /usr/lib/gcc/arm-none-eabi/6.3.1/../../../arm-none-eabi/lib/thumb/v7e-m/fpv4-sp/hard/libc_nano.a(lib_a-exit.o)
 .debug_loc     0x0000000000000dc1       0x5c /usr/lib/gcc/arm-none-eabi/6.3.1/../../../arm-none-eabi/lib/thumb/v7e-m/fpv4-sp/hard/libc_nano.a(lib_a-fini.o)
 .debug_loc     0x0000000000000e1d       0xae /usr/lib/gcc/arm-none-eabi/6.3.1/../../../arm-none-eabi/lib/thumb/v7e-m/fpv4-sp/hard/libc_nano.a(lib_a-init.o)
 .debug_loc     0x0000000000000ecb       0x58 /usr/lib/gcc/arm-none-eabi/6.3.1/../../../arm-none-eabi/lib/thumb/v7e-m/fpv4-sp/hard/libc_nano.a(lib_a-malloc.o)
 .debug_loc     0x0000000000000f23      0x18a /usr/lib/gcc/arm-none-eabi/6.3.1/../../../arm-none-eabi/lib/thumb/v7e-m/fpv4-sp/hard/libc_nano.a(lib_a-memcmp.o)
 .debug_loc     0x00000000000010ad      0x1bd /usr/lib/gcc/arm-none-eabi/6.3.1/../../../arm-none-eabi/lib/thumb/v7e-m/fpv4-sp/hard/libc_nano.a(lib_a-memset.o)
 .debug_loc     0x000000000000126a      0x140 /usr/lib/gcc/arm-none-eabi/6.3.1/../../../arm-none-eabi/lib/thumb/v7e-m/fpv4-sp/hard/libc_nano.a(lib_a-nano-freer.o)
 .debug_loc     0x00000000000013aa      0x389 /usr/lib/gcc/arm-none-eabi/6.3.1/../../../arm-none-eabi/lib/thumb/v7e-m/fpv4-sp/hard/libc_nano.a(lib_a-nano-mallocr.o)
 .debug_loc     0x0000000000001733       0x4d /usr/lib/gcc/arm-none-eabi/6.3.1/../../../arm-none-eabi/lib/thumb/v7e-m/fpv4-sp/hard/libc_nano.a(lib_a-sbrkr.o)
 .debug_loc     0x0000000000001780      0x1e7 /usr/lib/gcc/arm-none-eabi/6.3.1/../../../arm-none-eabi/lib/thumb/v7e-m/fpv4-sp/hard/libc_nano.a(lib_a-__atexit.o)
 .debug_loc     0x0000000000001967      0x173 /usr/lib/gcc/arm-none-eabi/6.3.1/../../../arm-none-eabi/lib/thumb/v7e-m/fpv4-sp/hard/libc_nano.a(lib_a-__call_atexit.o)

.debug_ranges   0x0000000000000000      0x130
 .debug_ranges  0x0000000000000000       0xd0 /usr/lib/gcc/arm-none-eabi/6.3.1/thumb/v7e-m/fpv4-sp/hard/libgcc.a(_udivmoddi4.o)
 .debug_ranges  0x00000000000000d0       0x40 /usr/lib/gcc/arm-none-eabi/6.3.1/../../../arm-none-eabi/lib/thumb/v7e-m/fpv4-sp/hard/libc_nano.a(lib_a-nano-mallocr.o)
 .debug_ranges  0x0000000000000110       0x20 /usr/lib/gcc/arm-none-eabi/6.3.1/../../../arm-none-eabi/lib/thumb/v7e-m/fpv4-sp/hard/libc_nano.a(lib_a-__call_atexit.o)

.debug_str      0x0000000000000000     0x19ae
 .debug_str     0x0000000000000000      0xc6b /usr/lib/gcc/arm-none-eabi/6.3.1/thumb/v7e-m/fpv4-sp/hard/libgcc.a(_udivmoddi4.o)
                                        0xcf4 (size before relaxing)
 .debug_str     0x0000000000000c6b      0x549 /usr/lib/gcc/arm-none-eabi/6.3.1/../../../arm-none-eabi/lib/thumb/v7e-m/fpv4-sp/hard/libc_nano.a(lib_a-atexit.o)
                                        0x64d (size before relaxing)
 .debug_str     0x00000000000011b4       0xc3 /usr/lib/gcc/arm-none-eabi/6.3.1/../../../arm-none-eabi/lib/thumb/v7e-m/fpv4-sp/hard/libc_nano.a(lib_a-errno.o)
                                        0x614 (size before relaxing)
 .debug_str     0x0000000000001277       0x72 /usr/lib/gcc/arm-none-eabi/6.3.1/../../../arm-none-eabi/lib/thumb/v7e-m/fpv4-sp/hard/libc_nano.a(lib_a-exit.o)
                                        0x64e (size before relaxing)
 .debug_str     0x00000000000012e9       0xdd /usr/lib/gcc/arm-none-eabi/6.3.1/../../../arm-none-eabi/lib/thumb/v7e-m/fpv4-sp/hard/libc_nano.a(lib_a-fini.o)
                                        0x229 (size before relaxing)
 .debug_str     0x00000000000013c6       0xb1 /usr/lib/gcc/arm-none-eabi/6.3.1/../../../arm-none-eabi/lib/thumb/v7e-m/fpv4-sp/hard/libc_nano.a(lib_a-impure.o)
                                        0x602 (size before relaxing)
 .debug_str     0x0000000000001477       0x99 /usr/lib/gcc/arm-none-eabi/6.3.1/../../../arm-none-eabi/lib/thumb/v7e-m/fpv4-sp/hard/libc_nano.a(lib_a-init.o)
                                        0x253 (size before relaxing)
 .debug_str     0x0000000000001510       0x5c /usr/lib/gcc/arm-none-eabi/6.3.1/../../../arm-none-eabi/lib/thumb/v7e-m/fpv4-sp/hard/libc_nano.a(lib_a-malloc.o)
                                        0x633 (size before relaxing)
 .debug_str     0x000000000000156c       0xae /usr/lib/gcc/arm-none-eabi/6.3.1/../../../arm-none-eabi/lib/thumb/v7e-m/fpv4-sp/hard/libc_nano.a(lib_a-memcmp.o)
                                        0x606 (size before relaxing)
 .debug_str     0x000000000000161a       0x52 /usr/lib/gcc/arm-none-eabi/6.3.1/../../../arm-none-eabi/lib/thumb/v7e-m/fpv4-sp/hard/libc_nano.a(lib_a-memset.o)
                                        0x61a (size before relaxing)
 .debug_str     0x000000000000166c      0x105 /usr/lib/gcc/arm-none-eabi/6.3.1/../../../arm-none-eabi/lib/thumb/v7e-m/fpv4-sp/hard/libc_nano.a(lib_a-nano-freer.o)
                                        0x714 (size before relaxing)
 .debug_str     0x0000000000001771       0x32 /usr/lib/gcc/arm-none-eabi/6.3.1/../../../arm-none-eabi/lib/thumb/v7e-m/fpv4-sp/hard/libc_nano.a(lib_a-nano-mallocr.o)
                                        0x72b (size before relaxing)
 .debug_str     0x00000000000017a3       0x4a /usr/lib/gcc/arm-none-eabi/6.3.1/../../../arm-none-eabi/lib/thumb/v7e-m/fpv4-sp/hard/libc_nano.a(lib_a-sbrkr.o)
                                        0x645 (size before relaxing)
 .debug_str     0x00000000000017ed       0x75 /usr/lib/gcc/arm-none-eabi/6.3.1/../../../arm-none-eabi/lib/thumb/v7e-m/fpv4-sp/hard/libc_nano.a(lib_a-__atexit.o)
                                        0x695 (size before relaxing)
 .debug_str     0x0000000000001862       0x4c /usr/lib/gcc/arm-none-eabi/6.3.1/../../../arm-none-eabi/lib/thumb/v7e-m/fpv4-sp/hard/libc_nano.a(lib_a-__call_atexit.o)
                                        0x645 (size before relaxing)
 .debug_str     0x00000000000018ae      0x100 /usr/lib/gcc/arm-none-eabi/6.3.1/../../../arm-none-eabi/lib/thumb/v7e-m/fpv4-sp/hard/libnosys.a(_exit.o)
                                        0x196 (size before relaxing)
